(lp0
(lp1
I1
aa(lp2
I1
aa(lp3
I1
aa(lp4
I1
aa(lp5
I1
aa(lp6
I1
aa(lp7
I1
aa(lp8
I1
aa(lp9
I1
aa(lp10
I1
aa(lp11
I1
aa(lp12
I1
aa(lp13
I1
aa(lp14
I1
aa(lp15
I1
aa(lp16
I1
aa(lp17
I1
aa(lp18
I1
aa(lp19
I1
aa(lp20
I1
aa(lp21
I1
aa(lp22
I1
aa(lp23
I1
aa(lp24
I1
aa(lp25
I1
aa(lp26
I1
aa(lp27
I1
aa(lp28
I1
aa(lp29
I1
aa(lp30
I1
aa(lp31
I1
aa(lp32
I1
aa(lp33
I1
aa(lp34
I1
aa(lp35
I1
aa(lp36
I1
aa(lp37
I1
aa(lp38
I1
aa(lp39
I1
aa(lp40
I1
aa(lp41
I1
aa(lp42
I1
aa(lp43
I1
aa(lp44
I1
aa(lp45
I1
aa(lp46
I1
aa(lp47
I1
aa(lp48
I1
aa(lp49
I1
aa(lp50
I1
aa(lp51
I1
aa(lp52
I1
aa(lp53
I1
aa(lp54
I1
aa(lp55
I1
aa(lp56
I1
aa(lp57
I1
aa(lp58
I1
aa(lp59
I1
aa(lp60
I1
aa(lp61
I1
aa(lp62
I1
aa(lp63
I1
aa(lp64
I1
aa(lp65
I1
aa(lp66
I1
aa(lp67
I1
aa(lp68
I1
aa(lp69
I1
aa(lp70
I1
aa(lp71
I1
aa(lp72
I1
aa(lp73
I1
aa(lp74
I1
aa(lp75
I1
aa(lp76
I1
aa(lp77
I1
aa(lp78
I1
aa(lp79
I1
aa(lp80
I1
aa(lp81
I1
aa(lp82
I1
aa(lp83
I1
aa(lp84
I1
aa(lp85
I1
aa(lp86
I1
aa(lp87
I1
aa(lp88
I1
aa(lp89
I1
aa(lp90
I1
aa(lp91
I1
aa(lp92
I1
aa(lp93
I1
aa(lp94
I1
aa(lp95
I1
aa(lp96
I1
aa(lp97
I1
aa(lp98
I1
aa(lp99
I1
aa(lp100
I1
aa(lp101
I1
aa(lp102
I1
aa(lp103
I1
aa(lp104
I1
aa(lp105
I1
aa(lp106
I1
aa(lp107
I1
aa(lp108
I1
aa(lp109
I1
aa(lp110
I1
aa(lp111
I1
aa(lp112
I1
aa(lp113
I1
aa(lp114
I1
aa(lp115
I1
aa(lp116
I1
aa(lp117
I1
aa(lp118
I1
aa(lp119
I1
aa(lp120
I1
aa(lp121
I1
aa(lp122
I1
aa(lp123
I1
aa(lp124
I1
aa(lp125
I1
aa(lp126
I1
aa(lp127
I1
aa(lp128
I1
aa(lp129
I1
aa(lp130
I1
aa(lp131
I1
aa(lp132
I1
aa(lp133
I1
aa(lp134
I1
aa(lp135
I1
aa(lp136
I1
aa(lp137
I1
aa(lp138
I1
aa(lp139
I1
aa(lp140
I1
aa(lp141
I1
aa(lp142
I1
aa(lp143
I1
aa(lp144
I1
aa(lp145
I1
aa(lp146
I1
aa(lp147
I1
aa(lp148
I1
aa(lp149
I1
aa(lp150
I1
aa(lp151
I1
aa(lp152
I1
aa(lp153
I1
aa(lp154
I1
aa(lp155
I1
aa(lp156
I1
aa(lp157
I1
aa(lp158
I1
aa(lp159
I1
aa(lp160
I1
aa(lp161
I1
aa(lp162
I1
aa(lp163
I1
aa(lp164
I1
aa(lp165
I1
aa(lp166
I1
aa(lp167
I1
aa(lp168
I1
aa(lp169
I1
aa(lp170
I1
aa(lp171
I1
aa(lp172
I1
aa(lp173
I1
aa(lp174
I1
aa(lp175
I1
aa(lp176
I1
aa(lp177
I1
aa(lp178
I1
aa(lp179
I1
aa(lp180
I1
aa(lp181
I1
aa(lp182
I1
aa(lp183
I1
aa(lp184
I1
aa(lp185
I1
aa(lp186
I1
aa(lp187
I1
aa(lp188
I1
aa(lp189
I1
aa(lp190
I1
aa(lp191
I1
aa(lp192
I1
aa(lp193
I1
aa(lp194
I1
aa(lp195
I1
aa(lp196
I1
aa(lp197
I1
aa(lp198
I1
aa(lp199
I1
aa(lp200
I1
aa(lp201
I1
aa(lp202
I1
aa(lp203
I1
aa(lp204
I1
aa(lp205
I1
aa(lp206
I1
aa(lp207
I1
aa(lp208
I1
aa(lp209
I1
aa(lp210
I1
aa(lp211
I1
aa(lp212
I1
aa(lp213
I1
aa(lp214
I1
aa(lp215
I1
aa(lp216
I1
aa(lp217
I1
aa(lp218
I1
aa(lp219
I1
aa(lp220
I1
aa(lp221
I1
aa(lp222
I1
aa(lp223
I1
aa(lp224
I1
aa(lp225
I1
aa(lp226
I1
aa(lp227
I1
aa(lp228
I1
aa(lp229
I1
aa(lp230
I1
aa(lp231
I1
aa(lp232
I1
aa(lp233
I1
aa(lp234
I1
aa(lp235
I1
aa(lp236
I1
aa(lp237
I1
aa(lp238
I1
aa(lp239
I1
aa(lp240
I1
aa(lp241
I1
aa(lp242
I1
aa(lp243
I1
aa(lp244
I1
aa(lp245
I1
aa(lp246
I1
aa(lp247
I1
aa(lp248
I1
aa(lp249
I1
aa(lp250
I1
aa(lp251
I1
aa(lp252
I1
aa(lp253
I1
aa(lp254
I1
aa(lp255
I1
aa(lp256
I1
aa(lp257
I1
aa(lp258
I1
aa(lp259
I1
aa(lp260
I1
aa(lp261
I1
aa(lp262
I1
aa(lp263
I1
aa(lp264
I1
aa(lp265
I1
aa(lp266
I1
aa(lp267
I1
aa(lp268
I1
aa(lp269
I1
aa(lp270
I1
aa(lp271
I1
aa(lp272
I1
aa(lp273
I1
aa(lp274
I1
aa(lp275
I1
aa(lp276
I1
aa(lp277
I1
aa(lp278
I1
aa(lp279
I1
aa(lp280
I1
aa(lp281
I1
aa(lp282
I1
aa(lp283
I1
aa(lp284
I1
aa(lp285
I1
aa(lp286
I1
aa(lp287
I1
aa(lp288
I1
aa(lp289
I1
aa(lp290
I1
aa(lp291
I1
aa(lp292
I1
aa(lp293
I1
aa(lp294
I1
aa(lp295
I1
aa(lp296
I1
aa(lp297
I1
aa(lp298
I1
aa(lp299
I1
aa(lp300
I1
aa(lp301
I1
aa(lp302
I1
aa(lp303
I1
aa(lp304
I1
aa(lp305
I1
aa(lp306
I1
aa(lp307
I1
aa(lp308
I1
aa(lp309
I1
aa(lp310
I1
aa(lp311
I1
aa(lp312
I1
aa(lp313
I1
aa(lp314
I1
aa(lp315
I1
aa(lp316
I1
aa(lp317
I1
aa(lp318
I1
aa(lp319
I1
aa(lp320
I1
aa(lp321
I1
aa(lp322
I1
aa(lp323
I1
aa(lp324
I1
aa(lp325
I1
aa(lp326
I1
aa(lp327
I1
aa(lp328
I1
aa(lp329
I1
aa(lp330
I1
aa(lp331
I1
aa(lp332
I1
aa(lp333
I1
aa(lp334
I1
aa(lp335
I1
aa(lp336
I1
aa(lp337
I1
aa(lp338
I1
aa(lp339
I1
aa(lp340
I1
aa(lp341
I1
aa(lp342
I1
aa(lp343
I1
aa(lp344
I1
aa(lp345
I1
aa(lp346
I1
aa(lp347
I1
aa(lp348
I1
aa(lp349
I1
aa(lp350
I1
aa(lp351
I1
aa(lp352
I1
aa(lp353
I1
aa(lp354
I1
aa(lp355
I1
aa(lp356
I1
aa(lp357
I1
aa(lp358
I1
aa(lp359
I1
aa(lp360
I1
aa(lp361
I1
aa(lp362
I1
aa(lp363
I1
aa(lp364
I1
aa(lp365
I1
aa(lp366
I1
aa(lp367
I1
aa(lp368
I1
aa(lp369
I1
aa(lp370
I1
aa(lp371
I1
aa(lp372
I1
aa(lp373
I1
aa(lp374
I1
aa(lp375
I1
aa(lp376
I1
aa(lp377
I1
aa(lp378
I1
aa(lp379
I1
aa(lp380
I1
aa(lp381
I1
aa(lp382
I1
aa(lp383
I1
aa(lp384
I1
aa(lp385
I1
aa(lp386
I1
aa(lp387
I1
aa(lp388
I1
aa(lp389
I1
aa(lp390
I1
aa(lp391
I1
aa(lp392
I1
aa(lp393
I1
aa(lp394
I1
aa(lp395
I1
aa(lp396
I1
aa(lp397
I1
aa(lp398
I1
aa(lp399
I1
aa(lp400
I1
aa(lp401
I1
aa(lp402
I1
aa(lp403
I1
aa(lp404
I1
aa(lp405
I1
aa(lp406
I1
aa(lp407
I1
aa(lp408
I1
aa(lp409
I1
aa(lp410
I1
aa(lp411
I1
aa(lp412
I1
aa(lp413
I1
aa(lp414
I1
aa(lp415
I1
aa(lp416
I1
aa(lp417
I1
aa(lp418
I1
aa(lp419
I1
aa(lp420
I1
aa(lp421
I1
aa(lp422
I1
aa(lp423
I1
aa(lp424
I1
aa(lp425
I1
aa(lp426
I1
aa(lp427
I1
aa(lp428
I1
aa(lp429
I1
aa(lp430
I1
aa(lp431
I1
aa(lp432
I1
aa(lp433
I1
aa(lp434
I1
aa(lp435
I1
aa(lp436
I1
aa(lp437
I1
aa(lp438
I1
aa(lp439
I1
aa(lp440
I1
aa(lp441
I1
aa(lp442
I1
aa(lp443
I1
aa(lp444
I1
aa(lp445
I1
aa(lp446
I1
aa(lp447
I1
aa(lp448
I1
aa(lp449
I1
aa(lp450
I1
aa(lp451
I1
aa(lp452
I1
aa(lp453
I1
aa(lp454
I1
aa(lp455
I1
aa(lp456
I1
aa(lp457
I1
aa(lp458
I1
aa(lp459
I1
aa(lp460
I1
aa(lp461
I1
aa(lp462
I1
aa(lp463
I1
aa(lp464
I1
aa(lp465
I1
aa(lp466
I1
aa(lp467
I1
aa(lp468
I1
aa(lp469
I1
aa(lp470
I1
aa(lp471
I1
aa(lp472
I1
aa(lp473
I1
aa(lp474
I1
aa(lp475
I1
aa(lp476
I1
aa(lp477
I1
aa(lp478
I1
aa(lp479
I1
aa(lp480
I1
aa(lp481
I1
aa(lp482
I1
aa(lp483
I1
aa(lp484
I1
aa(lp485
I1
aa(lp486
I1
aa(lp487
I1
aa(lp488
I1
aa(lp489
I1
aa(lp490
I1
aa(lp491
I1
aa(lp492
I1
aa(lp493
I1
aa(lp494
I1
aa(lp495
I1
aa(lp496
I1
aa(lp497
I1
aa(lp498
I1
aa(lp499
I1
aa(lp500
I1
aa(lp501
I1
aa(lp502
I1
aa(lp503
I1
aa(lp504
I1
aa(lp505
I1
aa(lp506
I1
aa(lp507
I1
aa(lp508
I1
aa(lp509
I1
aa(lp510
I1
aa(lp511
I1
aa(lp512
I1
aa(lp513
I1
aa(lp514
I1
aa(lp515
I1
aa(lp516
I1
aa(lp517
I1
aa(lp518
I1
aa(lp519
I1
aa(lp520
I1
aa(lp521
I1
aa(lp522
I1
aa(lp523
I1
aa(lp524
I1
aa(lp525
I1
aa(lp526
I1
aa(lp527
I1
aa(lp528
I1
aa(lp529
I1
aa(lp530
I1
aa(lp531
I1
aa(lp532
I1
aa(lp533
I1
aa(lp534
I1
aa(lp535
I1
aa(lp536
I1
aa(lp537
I1
aa(lp538
I1
aa(lp539
I1
aa(lp540
I1
aa(lp541
I1
aa(lp542
I1
aa(lp543
I1
aa(lp544
I1
aa(lp545
I1
aa(lp546
I1
aa(lp547
I1
aa(lp548
I1
aa(lp549
I1
aa(lp550
I1
aa(lp551
I1
aa(lp552
I1
aa(lp553
I1
aa(lp554
I1
aa(lp555
I1
aa(lp556
I1
aa(lp557
I1
aa(lp558
I1
aa(lp559
I1
aa(lp560
I1
aa(lp561
I1
aa(lp562
I1
aa(lp563
I1
aa(lp564
I1
aa(lp565
I1
aa(lp566
I1
aa(lp567
I1
aa(lp568
I1
aa(lp569
I1
aa(lp570
I1
aa(lp571
I1
aa(lp572
I1
aa(lp573
I1
aa(lp574
I1
aa(lp575
I1
aa(lp576
I1
aa(lp577
I1
aa(lp578
I1
aa(lp579
I1
aa(lp580
I1
aa(lp581
I1
aa(lp582
I1
aa(lp583
I1
aa(lp584
I1
aa(lp585
I1
aa(lp586
I1
aa(lp587
I1
aa(lp588
I1
aa(lp589
I1
aa(lp590
I1
aa(lp591
I1
aa(lp592
I1
aa(lp593
I1
aa(lp594
I1
aa(lp595
I1
aa(lp596
I1
aa(lp597
I1
aa(lp598
I1
aa(lp599
I1
aa(lp600
I1
aa(lp601
I1
aa(lp602
I1
aa(lp603
I1
aa(lp604
I1
aa(lp605
I1
aa(lp606
I1
aa(lp607
I1
aa(lp608
I1
aa(lp609
I1
aa(lp610
I1
aa(lp611
I1
aa(lp612
I1
aa(lp613
I1
aa(lp614
I1
aa(lp615
I1
aa(lp616
I1
aa(lp617
I1
aa(lp618
I1
aa(lp619
I1
aa(lp620
I1
aa(lp621
I1
aa(lp622
I1
aa(lp623
I1
aa(lp624
I1
aa(lp625
I1
aa(lp626
I1
aa(lp627
I1
aa(lp628
I1
aa(lp629
I1
aa(lp630
I1
aa(lp631
I1
aa(lp632
I1
aa(lp633
I1
aa(lp634
I1
aa(lp635
I1
aa(lp636
I1
aa(lp637
I1
aa(lp638
I1
aa(lp639
I1
aa(lp640
I1
aa(lp641
I1
aa(lp642
I1
aa(lp643
I1
aa(lp644
I1
aa(lp645
I1
aa(lp646
I1
aa(lp647
I1
aa(lp648
I1
aa(lp649
I1
aa(lp650
I1
aa(lp651
I1
aa(lp652
I1
aa(lp653
I1
aa(lp654
I1
aa(lp655
I1
aa(lp656
I1
aa(lp657
I1
aa(lp658
I1
aa(lp659
I1
aa(lp660
I1
aa(lp661
I1
aa(lp662
I1
aa(lp663
I1
aa(lp664
I1
aa(lp665
I1
aa(lp666
I1
aa(lp667
I1
aa(lp668
I1
aa(lp669
I1
aa(lp670
I1
aa(lp671
I1
aa(lp672
I1
aa(lp673
I1
aa(lp674
I1
aa(lp675
I1
aa(lp676
I1
aa(lp677
I1
aa(lp678
I1
aa(lp679
I1
aa(lp680
I1
aa(lp681
I1
aa(lp682
I1
aa(lp683
I1
aa(lp684
I1
aa(lp685
I1
aa(lp686
I1
aa(lp687
I1
aa(lp688
I1
aa(lp689
I1
aa(lp690
I1
aa(lp691
I1
aa(lp692
I1
aa(lp693
I1
aa(lp694
I1
aa(lp695
I1
aa(lp696
I1
aa(lp697
I1
aa(lp698
I1
aa(lp699
I1
aa(lp700
I1
aa(lp701
I1
aa(lp702
I1
aa(lp703
I1
aa(lp704
I1
aa(lp705
I1
aa(lp706
I1
aa(lp707
I1
aa(lp708
I1
aa(lp709
I1
aa(lp710
I1
aa(lp711
I1
aa(lp712
I1
aa(lp713
I1
aa(lp714
I1
aa(lp715
I1
aa(lp716
I1
aa(lp717
I1
aa(lp718
I1
aa(lp719
I1
aa(lp720
I1
aa(lp721
I1
aa(lp722
I1
aa(lp723
I1
aa(lp724
I1
aa(lp725
I1
aa(lp726
I1
aa(lp727
I1
aa(lp728
I1
aa(lp729
I1
aa(lp730
I1
aa(lp731
I1
aa(lp732
I1
aa(lp733
I1
aa(lp734
I1
aa(lp735
I1
aa(lp736
I1
aa(lp737
I1
aa(lp738
I1
aa(lp739
I1
aa(lp740
I1
aa(lp741
I1
aa(lp742
I1
aa(lp743
I1
aa(lp744
I1
aa(lp745
I1
aa(lp746
I1
aa(lp747
I1
aa(lp748
I1
aa(lp749
I1
aa(lp750
I1
aa(lp751
I1
aa(lp752
I1
aa(lp753
I1
aa(lp754
I1
aa(lp755
I1
aa(lp756
I1
aa(lp757
I1
aa(lp758
I1
aa(lp759
I1
aa(lp760
I1
aa(lp761
I1
aa(lp762
I1
aa(lp763
I1
aa(lp764
I1
aa(lp765
I1
aa(lp766
I1
aa(lp767
I1
aa(lp768
I1
aa(lp769
I1
aa(lp770
I1
aa(lp771
I1
aa(lp772
I1
aa(lp773
I1
aa(lp774
I1
aa(lp775
I1
aa(lp776
I1
aa(lp777
I1
aa(lp778
I1
aa(lp779
I1
aa(lp780
I1
aa(lp781
I1
aa(lp782
I1
aa(lp783
I1
aa(lp784
I1
aa(lp785
I1
aa(lp786
I1
aa(lp787
I1
aa(lp788
I1
aa(lp789
I1
aa(lp790
I1
aa(lp791
I1
aa(lp792
I1
aa(lp793
I1
aa(lp794
I1
aa(lp795
I1
aa(lp796
I1
aa(lp797
I1
aa(lp798
I1
aa(lp799
I1
aa(lp800
I1
aa(lp801
I1
aa(lp802
I1
aa(lp803
I1
aa(lp804
I1
aa(lp805
I1
aa(lp806
I1
aa(lp807
I1
aa(lp808
I1
aa(lp809
I1
aa(lp810
I1
aa(lp811
I1
aa(lp812
I1
aa(lp813
I1
aa(lp814
I1
aa(lp815
I1
aa(lp816
I1
aa(lp817
I1
aa(lp818
I1
aa(lp819
I1
aa(lp820
I1
aa(lp821
I1
aa(lp822
I1
aa(lp823
I1
aa(lp824
I1
aa(lp825
I1
aa(lp826
I1
aa(lp827
I1
aa(lp828
I1
aa(lp829
I1
aa(lp830
I1
aa(lp831
I1
aa(lp832
I1
aa(lp833
I1
aa(lp834
I1
aa(lp835
I1
aa(lp836
I1
aa(lp837
I1
aa(lp838
I1
aa(lp839
I1
aa(lp840
I1
aa(lp841
I1
aa(lp842
I1
aa(lp843
I1
aa(lp844
I1
aa(lp845
I1
aa(lp846
I1
aa(lp847
I1
aa(lp848
I1
aa(lp849
I1
aa(lp850
I1
aa(lp851
I1
aa(lp852
I1
aa(lp853
I1
aa(lp854
I1
aa(lp855
I1
aa(lp856
I1
aa(lp857
I1
aa(lp858
I1
aa(lp859
I1
aa(lp860
I1
aa(lp861
I1
aa(lp862
I1
aa(lp863
I1
aa(lp864
I1
aa(lp865
I1
aa(lp866
I1
aa(lp867
I1
aa(lp868
I1
aa(lp869
I1
aa(lp870
I1
aa(lp871
I1
aa(lp872
I1
aa(lp873
I1
aa(lp874
I1
aa(lp875
I1
aa(lp876
I1
aa(lp877
I1
aa(lp878
I1
aa(lp879
I1
aa(lp880
I1
aa(lp881
I1
aa(lp882
I1
aa(lp883
I1
aa(lp884
I1
aa(lp885
I1
aa(lp886
I1
aa(lp887
I1
aa(lp888
I1
aa(lp889
I1
aa(lp890
I1
aa(lp891
I1
aa(lp892
I1
aa(lp893
I1
aa(lp894
I1
aa(lp895
I1
aa(lp896
I1
aa(lp897
I1
aa(lp898
I1
aa(lp899
I1
aa(lp900
I1
aa(lp901
I1
aa(lp902
I1
aa(lp903
I1
aa(lp904
I1
aa(lp905
I1
aa(lp906
I1
aa(lp907
I1
aa(lp908
I1
aa(lp909
I1
aa(lp910
I1
aa(lp911
I1
aa(lp912
I1
aa(lp913
I1
aa(lp914
I1
aa(lp915
I1
aa(lp916
I1
aa(lp917
I1
aa(lp918
I1
aa(lp919
I1
aa(lp920
I1
aa(lp921
I1
aa(lp922
I1
aa(lp923
I1
aa(lp924
I1
aa(lp925
I1
aa(lp926
I1
aa(lp927
I1
aa(lp928
I1
aa(lp929
I1
aa(lp930
I1
aa(lp931
I1
aa(lp932
I1
aa(lp933
I1
aa(lp934
I1
aa(lp935
I1
aa(lp936
I1
aa(lp937
I1
aa(lp938
I1
aa(lp939
I1
aa(lp940
I1
aa(lp941
I1
aa(lp942
I1
aa(lp943
I1
aa(lp944
I1
aa(lp945
I1
aa(lp946
I1
aa(lp947
I1
aa(lp948
I1
aa(lp949
I1
aa(lp950
I1
aa(lp951
I1
aa(lp952
I1
aa(lp953
I1
aa(lp954
I1
aa(lp955
I1
aa(lp956
I1
aa(lp957
I1
aa(lp958
I1
aa(lp959
I1
aa(lp960
I1
aa(lp961
I1
aa(lp962
I1
aa(lp963
I1
aa(lp964
I1
aa(lp965
I1
aa(lp966
I1
aa(lp967
I1
aa(lp968
I1
aa(lp969
I1
aa(lp970
I1
aa(lp971
I1
aa(lp972
I1
aa(lp973
I1
aa(lp974
I1
aa(lp975
I1
aa(lp976
I1
aa(lp977
I1
aa(lp978
I1
aa(lp979
I1
aa(lp980
I1
aa(lp981
I1
aa(lp982
I1
aa(lp983
I1
aa(lp984
I1
aa(lp985
I1
aa(lp986
I1
aa(lp987
I1
aa(lp988
I1
aa(lp989
I1
aa(lp990
I1
aa(lp991
I1
aa(lp992
I1
aa(lp993
I1
aa(lp994
I1
aa(lp995
I1
aa(lp996
I1
aa(lp997
I1
aa(lp998
I1
aa(lp999
I1
aa(lp1000
I1
aa(lp1001
I1
aa(lp1002
I1
aa(lp1003
I1
aa(lp1004
I1
aa(lp1005
I1
aa(lp1006
I1
aa(lp1007
I1
aa(lp1008
I1
aa(lp1009
I1
aa(lp1010
I1
aa(lp1011
I1
aa(lp1012
I1
aa(lp1013
I1
aa(lp1014
I1
aa(lp1015
I1
aa(lp1016
I1
aa(lp1017
I1
aa(lp1018
I1
aa(lp1019
I1
aa(lp1020
I1
aa(lp1021
I1
aa(lp1022
I1
aa(lp1023
I1
aa(lp1024
I1
aa(lp1025
I1
aa(lp1026
I1
aa(lp1027
I1
aa(lp1028
I1
aa(lp1029
I1
aa(lp1030
I1
aa(lp1031
I1
aa(lp1032
I1
aa(lp1033
I1
aa(lp1034
I1
aa(lp1035
I1
aa(lp1036
I1
aa(lp1037
I1
aa(lp1038
I1
aa(lp1039
I1
aa(lp1040
I1
aa(lp1041
I1
aa(lp1042
I1
aa(lp1043
I1
aa(lp1044
I1
aa(lp1045
I1
aa(lp1046
I1
aa(lp1047
I1
aa(lp1048
I1
aa(lp1049
I1
aa(lp1050
I1
aa(lp1051
I1
aa(lp1052
I1
aa(lp1053
I1
aa(lp1054
I1
aa(lp1055
I1
aa(lp1056
I1
aa(lp1057
I1
aa(lp1058
I1
aa(lp1059
I1
aa(lp1060
I1
aa(lp1061
I1
aa(lp1062
I1
aa(lp1063
I1
aa(lp1064
I1
aa(lp1065
I1
aa(lp1066
I1
aa(lp1067
I1
aa(lp1068
I1
aa(lp1069
I1
aa(lp1070
I1
aa(lp1071
I1
aa(lp1072
I1
aa(lp1073
I1
aa(lp1074
I1
aa(lp1075
I1
aa(lp1076
I1
aa(lp1077
I1
aa(lp1078
I1
aa(lp1079
I1
aa(lp1080
I2
aa(lp1081
I2
aa(lp1082
I2
aa(lp1083
I2
aa(lp1084
I2
aa(lp1085
I2
aa(lp1086
I2
aa(lp1087
I2
aa(lp1088
I2
aa(lp1089
I2
aa(lp1090
I2
aa(lp1091
I2
aa(lp1092
I2
aa(lp1093
I2
aa(lp1094
I2
aa(lp1095
I2
aa(lp1096
I2
aa(lp1097
I2
aa(lp1098
I2
aa(lp1099
I2
aa(lp1100
I2
aa(lp1101
I2
aa(lp1102
I2
aa(lp1103
I2
aa(lp1104
I2
aa(lp1105
I2
aa(lp1106
I2
aa(lp1107
I2
aa(lp1108
I2
aa(lp1109
I2
aa(lp1110
I2
aa(lp1111
I2
aa(lp1112
I2
aa(lp1113
I2
aa(lp1114
I2
aa(lp1115
I2
aa(lp1116
I2
aa(lp1117
I2
aa(lp1118
I2
aa(lp1119
I2
aa(lp1120
I2
aa(lp1121
I2
aa(lp1122
I2
aa(lp1123
I2
aa(lp1124
I2
aa(lp1125
I2
aa(lp1126
I2
aa(lp1127
I2
aa(lp1128
I2
aa(lp1129
I2
aa(lp1130
I2
aa(lp1131
I2
aa(lp1132
I2
aa(lp1133
I2
aa(lp1134
I2
aa(lp1135
I2
aa(lp1136
I2
aa(lp1137
I2
aa(lp1138
I2
aa(lp1139
I2
aa(lp1140
I2
aa(lp1141
I2
aa(lp1142
I2
aa(lp1143
I2
aa(lp1144
I2
aa(lp1145
I2
aa(lp1146
I2
aa(lp1147
I2
aa(lp1148
I2
aa(lp1149
I2
aa(lp1150
I2
aa(lp1151
I2
aa(lp1152
I2
aa(lp1153
I2
aa(lp1154
I2
aa(lp1155
I2
aa(lp1156
I2
aa(lp1157
I2
aa(lp1158
I2
aa(lp1159
I2
aa(lp1160
I2
aa(lp1161
I2
aa(lp1162
I2
aa(lp1163
I2
aa(lp1164
I2
aa(lp1165
I2
aa(lp1166
I2
aa(lp1167
I2
aa(lp1168
I2
aa(lp1169
I2
aa(lp1170
I2
aa(lp1171
I2
aa(lp1172
I2
aa(lp1173
I2
aa(lp1174
I2
aa(lp1175
I2
aa(lp1176
I2
aa(lp1177
I2
aa(lp1178
I2
aa(lp1179
I2
aa(lp1180
I2
aa(lp1181
I2
aa(lp1182
I2
aa(lp1183
I2
aa(lp1184
I2
aa(lp1185
I2
aa(lp1186
I2
aa(lp1187
I2
aa(lp1188
I2
aa(lp1189
I2
aa(lp1190
I2
aa(lp1191
I2
aa(lp1192
I2
aa(lp1193
I2
aa(lp1194
I2
aa(lp1195
I2
aa(lp1196
I2
aa(lp1197
I2
aa(lp1198
I2
aa(lp1199
I2
aa(lp1200
I2
aa(lp1201
I2
aa(lp1202
I2
aa(lp1203
I2
aa(lp1204
I2
aa(lp1205
I2
aa(lp1206
I2
aa(lp1207
I2
aa(lp1208
I2
aa(lp1209
I2
aa(lp1210
I2
aa(lp1211
I2
aa(lp1212
I2
aa(lp1213
I2
aa(lp1214
I2
aa(lp1215
I2
aa(lp1216
I2
aa(lp1217
I2
aa(lp1218
I2
aa(lp1219
I2
aa(lp1220
I2
aa(lp1221
I2
aa(lp1222
I2
aa(lp1223
I2
aa(lp1224
I2
aa(lp1225
I2
aa(lp1226
I2
aa(lp1227
I2
aa(lp1228
I2
aa(lp1229
I2
aa(lp1230
I2
aa(lp1231
I2
aa(lp1232
I2
aa(lp1233
I2
aa(lp1234
I2
aa(lp1235
I2
aa(lp1236
I2
aa(lp1237
I2
aa(lp1238
I2
aa(lp1239
I2
aa(lp1240
I2
aa(lp1241
I2
aa(lp1242
I2
aa(lp1243
I2
aa(lp1244
I2
aa(lp1245
I2
aa(lp1246
I2
aa(lp1247
I2
aa(lp1248
I2
aa(lp1249
I2
aa(lp1250
I2
aa(lp1251
I2
aa(lp1252
I2
aa(lp1253
I2
aa(lp1254
I2
aa(lp1255
I2
aa(lp1256
I2
aa(lp1257
I2
aa(lp1258
I2
aa(lp1259
I2
aa(lp1260
I2
aa(lp1261
I2
aa(lp1262
I2
aa(lp1263
I2
aa(lp1264
I2
aa(lp1265
I2
aa(lp1266
I2
aa(lp1267
I2
aa(lp1268
I2
aa(lp1269
I2
aa(lp1270
I2
aa(lp1271
I2
aa(lp1272
I2
aa(lp1273
I2
aa(lp1274
I2
aa(lp1275
I2
aa(lp1276
I2
aa(lp1277
I2
aa(lp1278
I2
aa(lp1279
I2
aa(lp1280
I2
aa(lp1281
I2
aa(lp1282
I2
aa(lp1283
I2
aa(lp1284
I2
aa(lp1285
I2
aa(lp1286
I2
aa(lp1287
I2
aa(lp1288
I2
aa(lp1289
I2
aa(lp1290
I2
aa(lp1291
I2
aa(lp1292
I2
aa(lp1293
I2
aa(lp1294
I2
aa(lp1295
I2
aa(lp1296
I2
aa(lp1297
I2
aa(lp1298
I2
aa(lp1299
I2
aa(lp1300
I2
aa(lp1301
I2
aa(lp1302
I2
aa(lp1303
I2
aa(lp1304
I2
aa(lp1305
I2
aa(lp1306
I2
aa(lp1307
I2
aa(lp1308
I2
aa(lp1309
I2
aa(lp1310
I2
aa(lp1311
I2
aa(lp1312
I2
aa(lp1313
I2
aa(lp1314
I2
aa(lp1315
I2
aa(lp1316
I2
aa(lp1317
I2
aa(lp1318
I2
aa(lp1319
I2
aa(lp1320
I2
aa(lp1321
I2
aa(lp1322
I2
aa(lp1323
I2
aa(lp1324
I2
aa(lp1325
I2
aa(lp1326
I2
aa(lp1327
I2
aa(lp1328
I2
aa(lp1329
I2
aa(lp1330
I2
aa(lp1331
I2
aa(lp1332
I2
aa(lp1333
I2
aa(lp1334
I2
aa(lp1335
I2
aa(lp1336
I2
aa(lp1337
I2
aa(lp1338
I2
aa(lp1339
I2
aa(lp1340
I2
aa(lp1341
I2
aa(lp1342
I2
aa(lp1343
I2
aa(lp1344
I2
aa(lp1345
I2
aa(lp1346
I2
aa(lp1347
I2
aa(lp1348
I2
aa(lp1349
I2
aa(lp1350
I2
aa(lp1351
I2
aa(lp1352
I2
aa(lp1353
I2
aa(lp1354
I2
aa(lp1355
I2
aa(lp1356
I2
aa(lp1357
I2
aa(lp1358
I2
aa(lp1359
I2
aa(lp1360
I2
aa(lp1361
I2
aa(lp1362
I2
aa(lp1363
I2
aa(lp1364
I2
aa(lp1365
I2
aa(lp1366
I2
aa(lp1367
I2
aa(lp1368
I2
aa(lp1369
I2
aa(lp1370
I2
aa(lp1371
I2
aa(lp1372
I2
aa(lp1373
I2
aa(lp1374
I2
aa(lp1375
I2
aa(lp1376
I2
aa(lp1377
I2
aa(lp1378
I2
aa(lp1379
I2
aa(lp1380
I2
aa(lp1381
I2
aa(lp1382
I2
aa(lp1383
I2
aa(lp1384
I2
aa(lp1385
I2
aa(lp1386
I2
aa(lp1387
I2
aa(lp1388
I2
aa(lp1389
I2
aa(lp1390
I2
aa(lp1391
I2
aa(lp1392
I2
aa(lp1393
I2
aa(lp1394
I2
aa(lp1395
I2
aa(lp1396
I2
aa(lp1397
I2
aa(lp1398
I2
aa(lp1399
I2
aa(lp1400
I2
aa(lp1401
I2
aa(lp1402
I2
aa(lp1403
I2
aa(lp1404
I2
aa(lp1405
I2
aa(lp1406
I2
aa(lp1407
I2
aa(lp1408
I2
aa(lp1409
I2
aa(lp1410
I2
aa(lp1411
I2
aa(lp1412
I2
aa(lp1413
I2
aa(lp1414
I2
aa(lp1415
I2
aa(lp1416
I2
aa(lp1417
I2
aa(lp1418
I2
aa(lp1419
I2
aa(lp1420
I2
aa(lp1421
I2
aa(lp1422
I2
aa(lp1423
I2
aa(lp1424
I2
aa(lp1425
I2
aa(lp1426
I2
aa(lp1427
I2
aa(lp1428
I2
aa(lp1429
I2
aa(lp1430
I2
aa(lp1431
I2
aa(lp1432
I2
aa(lp1433
I2
aa(lp1434
I2
aa(lp1435
I2
aa(lp1436
I2
aa(lp1437
I2
aa(lp1438
I2
aa(lp1439
I2
aa(lp1440
I2
aa(lp1441
I2
aa(lp1442
I2
aa(lp1443
I2
aa(lp1444
I2
aa(lp1445
I2
aa(lp1446
I2
aa(lp1447
I2
aa(lp1448
I2
aa(lp1449
I2
aa(lp1450
I2
aa(lp1451
I2
aa(lp1452
I2
aa(lp1453
I2
aa(lp1454
I2
aa(lp1455
I2
aa(lp1456
I2
aa(lp1457
I2
aa(lp1458
I2
aa(lp1459
I2
aa(lp1460
I2
aa(lp1461
I2
aa(lp1462
I2
aa(lp1463
I2
aa(lp1464
I2
aa(lp1465
I2
aa(lp1466
I2
aa(lp1467
I2
aa(lp1468
I2
aa(lp1469
I2
aa(lp1470
I2
aa(lp1471
I2
aa(lp1472
I2
aa(lp1473
I2
aa(lp1474
I2
aa(lp1475
I2
aa(lp1476
I2
aa(lp1477
I2
aa(lp1478
I2
aa(lp1479
I2
aa(lp1480
I2
aa(lp1481
I2
aa(lp1482
I2
aa(lp1483
I2
aa(lp1484
I2
aa(lp1485
I2
aa(lp1486
I2
aa(lp1487
I2
aa(lp1488
I2
aa(lp1489
I2
aa(lp1490
I2
aa(lp1491
I2
aa(lp1492
I2
aa(lp1493
I2
aa(lp1494
I2
aa(lp1495
I2
aa(lp1496
I2
aa(lp1497
I2
aa(lp1498
I2
aa(lp1499
I2
aa(lp1500
I2
aa(lp1501
I2
aa(lp1502
I2
aa(lp1503
I2
aa(lp1504
I2
aa(lp1505
I2
aa(lp1506
I2
aa(lp1507
I2
aa(lp1508
I2
aa(lp1509
I2
aa(lp1510
I2
aa(lp1511
I2
aa(lp1512
I2
aa(lp1513
I2
aa(lp1514
I2
aa(lp1515
I2
aa(lp1516
I2
aa(lp1517
I2
aa(lp1518
I2
aa(lp1519
I2
aa(lp1520
I2
aa(lp1521
I2
aa(lp1522
I2
aa(lp1523
I2
aa(lp1524
I2
aa(lp1525
I2
aa(lp1526
I2
aa(lp1527
I2
aa(lp1528
I2
aa(lp1529
I2
aa(lp1530
I2
aa(lp1531
I2
aa(lp1532
I2
aa(lp1533
I2
aa(lp1534
I2
aa(lp1535
I2
aa(lp1536
I2
aa(lp1537
I2
aa(lp1538
I2
aa(lp1539
I2
aa(lp1540
I2
aa(lp1541
I2
aa(lp1542
I2
aa(lp1543
I2
aa(lp1544
I2
aa(lp1545
I2
aa(lp1546
I2
aa(lp1547
I2
aa(lp1548
I2
aa(lp1549
I2
aa(lp1550
I2
aa(lp1551
I2
aa(lp1552
I2
aa(lp1553
I2
aa(lp1554
I2
aa(lp1555
I2
aa(lp1556
I2
aa(lp1557
I2
aa(lp1558
I2
aa(lp1559
I2
aa(lp1560
I2
aa(lp1561
I2
aa(lp1562
I2
aa(lp1563
I2
aa(lp1564
I2
aa(lp1565
I2
aa(lp1566
I2
aa(lp1567
I2
aa(lp1568
I2
aa(lp1569
I2
aa(lp1570
I2
aa(lp1571
I2
aa(lp1572
I2
aa(lp1573
I2
aa(lp1574
I2
aa(lp1575
I2
aa(lp1576
I2
aa(lp1577
I2
aa(lp1578
I2
aa(lp1579
I2
aa(lp1580
I2
aa(lp1581
I2
aa(lp1582
I2
aa(lp1583
I2
aa(lp1584
I2
aa(lp1585
I2
aa(lp1586
I2
aa(lp1587
I2
aa(lp1588
I2
aa(lp1589
I2
aa(lp1590
I2
aa(lp1591
I2
aa(lp1592
I2
aa(lp1593
I2
aa(lp1594
I2
aa(lp1595
I2
aa(lp1596
I2
aa(lp1597
I2
aa(lp1598
I2
aa(lp1599
I2
aa(lp1600
I2
aa(lp1601
I2
aa(lp1602
I2
aa(lp1603
I2
aa(lp1604
I2
aa(lp1605
I2
aa(lp1606
I2
aa(lp1607
I2
aa(lp1608
I2
aa(lp1609
I2
aa(lp1610
I2
aa(lp1611
I2
aa(lp1612
I2
aa(lp1613
I2
aa(lp1614
I2
aa(lp1615
I2
aa(lp1616
I2
aa(lp1617
I2
aa(lp1618
I2
aa(lp1619
I2
aa(lp1620
I2
aa(lp1621
I2
aa(lp1622
I2
aa(lp1623
I2
aa(lp1624
I2
aa(lp1625
I2
aa(lp1626
I2
aa(lp1627
I2
aa(lp1628
I2
aa(lp1629
I2
aa(lp1630
I2
aa(lp1631
I2
aa(lp1632
I2
aa(lp1633
I2
aa(lp1634
I2
aa(lp1635
I2
aa(lp1636
I2
aa(lp1637
I2
aa(lp1638
I2
aa(lp1639
I2
aa(lp1640
I2
aa(lp1641
I2
aa(lp1642
I2
aa(lp1643
I2
aa(lp1644
I2
aa(lp1645
I2
aa(lp1646
I2
aa(lp1647
I2
aa(lp1648
I2
aa(lp1649
I2
aa(lp1650
I2
aa(lp1651
I2
aa(lp1652
I2
aa(lp1653
I2
aa(lp1654
I2
aa(lp1655
I2
aa(lp1656
I2
aa(lp1657
I2
aa(lp1658
I2
aa(lp1659
I2
aa(lp1660
I2
aa(lp1661
I2
aa(lp1662
I2
aa(lp1663
I2
aa(lp1664
I2
aa(lp1665
I2
aa(lp1666
I2
aa(lp1667
I2
aa(lp1668
I2
aa(lp1669
I2
aa(lp1670
I2
aa(lp1671
I3
aa(lp1672
I3
aa(lp1673
I3
aa(lp1674
I3
aa(lp1675
I3
aa(lp1676
I3
aa(lp1677
I3
aa(lp1678
I3
aa(lp1679
I3
aa(lp1680
I3
aa(lp1681
I3
aa(lp1682
I3
aa(lp1683
I3
aa(lp1684
I3
aa(lp1685
I3
aa(lp1686
I3
aa(lp1687
I3
aa(lp1688
I3
aa(lp1689
I3
aa(lp1690
I3
aa(lp1691
I3
aa(lp1692
I3
aa(lp1693
I3
aa(lp1694
I3
aa(lp1695
I3
aa(lp1696
I3
aa(lp1697
I3
aa(lp1698
I3
aa(lp1699
I3
aa(lp1700
I3
aa(lp1701
I3
aa(lp1702
I3
aa(lp1703
I3
aa(lp1704
I3
aa(lp1705
I3
aa(lp1706
I3
aa(lp1707
I3
aa(lp1708
I3
aa(lp1709
I3
aa(lp1710
I3
aa(lp1711
I3
aa(lp1712
I3
aa(lp1713
I3
aa(lp1714
I3
aa(lp1715
I3
aa(lp1716
I3
aa(lp1717
I3
aa(lp1718
I3
aa(lp1719
I3
aa(lp1720
I3
aa(lp1721
I3
aa(lp1722
I3
aa(lp1723
I3
aa(lp1724
I3
aa(lp1725
I3
aa(lp1726
I3
aa(lp1727
I3
aa(lp1728
I3
aa(lp1729
I3
aa(lp1730
I3
aa(lp1731
I3
aa(lp1732
I3
aa(lp1733
I3
aa(lp1734
I3
aa(lp1735
I3
aa(lp1736
I3
aa(lp1737
I3
aa(lp1738
I3
aa(lp1739
I3
aa(lp1740
I3
aa(lp1741
I3
aa(lp1742
I3
aa(lp1743
I3
aa(lp1744
I3
aa(lp1745
I3
aa(lp1746
I3
aa(lp1747
I3
aa(lp1748
I3
aa(lp1749
I3
aa(lp1750
I3
aa(lp1751
I3
aa(lp1752
I3
aa(lp1753
I3
aa(lp1754
I3
aa(lp1755
I3
aa(lp1756
I3
aa(lp1757
I3
aa(lp1758
I3
aa(lp1759
I3
aa(lp1760
I3
aa(lp1761
I3
aa(lp1762
I3
aa(lp1763
I3
aa(lp1764
I3
aa(lp1765
I3
aa(lp1766
I3
aa(lp1767
I3
aa(lp1768
I3
aa(lp1769
I3
aa(lp1770
I3
aa(lp1771
I3
aa(lp1772
I3
aa(lp1773
I3
aa(lp1774
I3
aa(lp1775
I3
aa(lp1776
I3
aa(lp1777
I3
aa(lp1778
I3
aa(lp1779
I3
aa(lp1780
I3
aa(lp1781
I3
aa(lp1782
I3
aa(lp1783
I3
aa(lp1784
I3
aa(lp1785
I3
aa(lp1786
I3
aa(lp1787
I3
aa(lp1788
I3
aa(lp1789
I3
aa(lp1790
I3
aa(lp1791
I3
aa(lp1792
I3
aa(lp1793
I3
aa(lp1794
I3
aa(lp1795
I3
aa(lp1796
I3
aa(lp1797
I3
aa(lp1798
I3
aa(lp1799
I3
aa(lp1800
I3
aa(lp1801
I3
aa(lp1802
I3
aa(lp1803
I3
aa(lp1804
I3
aa(lp1805
I3
aa(lp1806
I3
aa(lp1807
I3
aa(lp1808
I3
aa(lp1809
I3
aa(lp1810
I3
aa(lp1811
I3
aa(lp1812
I3
aa(lp1813
I3
aa(lp1814
I3
aa(lp1815
I3
aa(lp1816
I3
aa(lp1817
I3
aa(lp1818
I3
aa(lp1819
I3
aa(lp1820
I3
aa(lp1821
I3
aa(lp1822
I3
aa(lp1823
I3
aa(lp1824
I3
aa(lp1825
I3
aa(lp1826
I3
aa(lp1827
I3
aa(lp1828
I3
aa(lp1829
I3
aa(lp1830
I3
aa(lp1831
I3
aa(lp1832
I3
aa(lp1833
I3
aa(lp1834
I3
aa(lp1835
I3
aa(lp1836
I3
aa(lp1837
I3
aa(lp1838
I3
aa(lp1839
I3
aa(lp1840
I3
aa(lp1841
I3
aa(lp1842
I3
aa(lp1843
I3
aa(lp1844
I3
aa(lp1845
I3
aa(lp1846
I3
aa(lp1847
I3
aa(lp1848
I3
aa(lp1849
I3
aa(lp1850
I3
aa(lp1851
I3
aa(lp1852
I3
aa(lp1853
I3
aa(lp1854
I3
aa(lp1855
I3
aa(lp1856
I3
aa(lp1857
I3
aa(lp1858
I3
aa(lp1859
I3
aa(lp1860
I3
aa(lp1861
I3
aa(lp1862
I3
aa(lp1863
I3
aa(lp1864
I3
aa(lp1865
I3
aa(lp1866
I3
aa(lp1867
I3
aa(lp1868
I3
aa(lp1869
I3
aa(lp1870
I3
aa(lp1871
I3
aa(lp1872
I3
aa(lp1873
I3
aa(lp1874
I3
aa(lp1875
I3
aa(lp1876
I3
aa(lp1877
I3
aa(lp1878
I3
aa(lp1879
I3
aa(lp1880
I3
aa(lp1881
I3
aa(lp1882
I3
aa(lp1883
I3
aa(lp1884
I3
aa(lp1885
I3
aa(lp1886
I3
aa(lp1887
I3
aa(lp1888
I3
aa(lp1889
I3
aa(lp1890
I3
aa(lp1891
I3
aa(lp1892
I3
aa(lp1893
I3
aa(lp1894
I3
aa(lp1895
I3
aa(lp1896
I3
aa(lp1897
I3
aa(lp1898
I3
aa(lp1899
I3
aa(lp1900
I3
aa(lp1901
I3
aa(lp1902
I3
aa(lp1903
I3
aa(lp1904
I3
aa(lp1905
I3
aa(lp1906
I3
aa(lp1907
I3
aa(lp1908
I3
aa(lp1909
I3
aa(lp1910
I3
aa(lp1911
I3
aa(lp1912
I3
aa(lp1913
I3
aa(lp1914
I3
aa(lp1915
I3
aa(lp1916
I3
aa(lp1917
I3
aa(lp1918
I3
aa(lp1919
I3
aa(lp1920
I3
aa(lp1921
I3
aa(lp1922
I3
aa(lp1923
I3
aa(lp1924
I3
aa(lp1925
I3
aa(lp1926
I3
aa(lp1927
I3
aa(lp1928
I3
aa(lp1929
I3
aa(lp1930
I3
aa(lp1931
I3
aa(lp1932
I3
aa(lp1933
I3
aa(lp1934
I3
aa(lp1935
I3
aa(lp1936
I3
aa(lp1937
I3
aa(lp1938
I3
aa(lp1939
I3
aa(lp1940
I3
aa(lp1941
I3
aa(lp1942
I3
aa(lp1943
I3
aa(lp1944
I3
aa(lp1945
I3
aa(lp1946
I3
aa(lp1947
I3
aa(lp1948
I3
aa(lp1949
I3
aa(lp1950
I3
aa(lp1951
I3
aa(lp1952
I3
aa(lp1953
I3
aa(lp1954
I3
aa(lp1955
I3
aa(lp1956
I3
aa(lp1957
I3
aa(lp1958
I3
aa(lp1959
I3
aa(lp1960
I3
aa(lp1961
I3
aa(lp1962
I3
aa(lp1963
I3
aa(lp1964
I3
aa(lp1965
I3
aa(lp1966
I3
aa(lp1967
I3
aa(lp1968
I3
aa(lp1969
I3
aa(lp1970
I3
aa(lp1971
I3
aa(lp1972
I3
aa(lp1973
I3
aa(lp1974
I3
aa(lp1975
I3
aa(lp1976
I3
aa(lp1977
I3
aa(lp1978
I3
aa(lp1979
I3
aa(lp1980
I3
aa(lp1981
I3
aa(lp1982
I3
aa(lp1983
I3
aa(lp1984
I3
aa(lp1985
I3
aa(lp1986
I3
aa(lp1987
I3
aa(lp1988
I3
aa(lp1989
I3
aa(lp1990
I3
aa(lp1991
I3
aa(lp1992
I3
aa(lp1993
I3
aa(lp1994
I3
aa(lp1995
I3
aa(lp1996
I3
aa(lp1997
I3
aa(lp1998
I3
aa(lp1999
I3
aa(lp2000
I3
aa(lp2001
I3
aa(lp2002
I3
aa(lp2003
I3
aa(lp2004
I3
aa(lp2005
I3
aa(lp2006
I3
aa(lp2007
I3
aa(lp2008
I3
aa(lp2009
I3
aa(lp2010
I3
aa(lp2011
I3
aa(lp2012
I3
aa(lp2013
I3
aa(lp2014
I3
aa(lp2015
I3
aa(lp2016
I3
aa(lp2017
I3
aa(lp2018
I3
aa(lp2019
I3
aa(lp2020
I3
aa(lp2021
I3
aa(lp2022
I3
aa(lp2023
I3
aa(lp2024
I3
aa(lp2025
I3
aa(lp2026
I3
aa(lp2027
I3
aa(lp2028
I3
aa(lp2029
I3
aa(lp2030
I3
aa(lp2031
I3
aa(lp2032
I3
aa(lp2033
I3
aa(lp2034
I3
aa(lp2035
I3
aa(lp2036
I3
aa(lp2037
I3
aa(lp2038
I3
aa(lp2039
I3
aa(lp2040
I3
aa(lp2041
I3
aa(lp2042
I3
aa(lp2043
I3
aa(lp2044
I3
aa(lp2045
I3
aa(lp2046
I3
aa(lp2047
I3
aa(lp2048
I3
aa(lp2049
I3
aa(lp2050
I3
aa(lp2051
I3
aa(lp2052
I3
aa(lp2053
I3
aa(lp2054
I3
aa(lp2055
I3
aa(lp2056
I3
aa(lp2057
I3
aa(lp2058
I3
aa(lp2059
I3
aa(lp2060
I3
aa(lp2061
I3
aa(lp2062
I3
aa(lp2063
I3
aa(lp2064
I3
aa(lp2065
I3
aa(lp2066
I3
aa(lp2067
I3
aa(lp2068
I3
aa(lp2069
I3
aa(lp2070
I3
aa(lp2071
I3
aa(lp2072
I3
aa(lp2073
I3
aa(lp2074
I3
aa(lp2075
I3
aa(lp2076
I3
aa(lp2077
I3
aa(lp2078
I3
aa(lp2079
I3
aa(lp2080
I3
aa(lp2081
I3
aa(lp2082
I3
aa(lp2083
I3
aa(lp2084
I3
aa(lp2085
I3
aa(lp2086
I3
aa(lp2087
I3
aa(lp2088
I3
aa(lp2089
I3
aa(lp2090
I3
aa(lp2091
I3
aa(lp2092
I3
aa(lp2093
I3
aa(lp2094
I3
aa(lp2095
I3
aa(lp2096
I3
aa(lp2097
I3
aa(lp2098
I3
aa(lp2099
I3
aa(lp2100
I3
aa(lp2101
I3
aa(lp2102
I3
aa(lp2103
I3
aa(lp2104
I3
aa(lp2105
I3
aa(lp2106
I3
aa(lp2107
I3
aa(lp2108
I3
aa(lp2109
I3
aa(lp2110
I3
aa(lp2111
I3
aa(lp2112
I3
aa(lp2113
I3
aa(lp2114
I3
aa(lp2115
I3
aa(lp2116
I3
aa(lp2117
I3
aa(lp2118
I3
aa(lp2119
I3
aa(lp2120
I3
aa(lp2121
I3
aa(lp2122
I3
aa(lp2123
I3
aa(lp2124
I3
aa(lp2125
I3
aa(lp2126
I3
aa(lp2127
I3
aa(lp2128
I3
aa(lp2129
I3
aa(lp2130
I3
aa(lp2131
I3
aa(lp2132
I3
aa(lp2133
I3
aa(lp2134
I3
aa(lp2135
I3
aa(lp2136
I3
aa(lp2137
I3
aa(lp2138
I3
aa(lp2139
I3
aa(lp2140
I3
aa(lp2141
I3
aa(lp2142
I3
aa(lp2143
I3
aa(lp2144
I3
aa(lp2145
I3
aa(lp2146
I3
aa(lp2147
I3
aa(lp2148
I3
aa(lp2149
I3
aa(lp2150
I3
aa(lp2151
I3
aa(lp2152
I3
aa(lp2153
I3
aa(lp2154
I3
aa(lp2155
I3
aa(lp2156
I3
aa(lp2157
I3
aa(lp2158
I3
aa(lp2159
I3
aa(lp2160
I3
aa(lp2161
I3
aa(lp2162
I3
aa(lp2163
I3
aa(lp2164
I3
aa(lp2165
I3
aa(lp2166
I3
aa(lp2167
I3
aa(lp2168
I3
aa(lp2169
I3
aa(lp2170
I3
aa(lp2171
I3
aa(lp2172
I3
aa(lp2173
I3
aa(lp2174
I3
aa(lp2175
I3
aa(lp2176
I3
aa(lp2177
I3
aa(lp2178
I3
aa(lp2179
I3
aa(lp2180
I3
aa(lp2181
I3
aa(lp2182
I3
aa(lp2183
I3
aa(lp2184
I3
aa(lp2185
I3
aa(lp2186
I3
aa(lp2187
I3
aa(lp2188
I3
aa(lp2189
I3
aa(lp2190
I3
aa(lp2191
I3
aa(lp2192
I3
aa(lp2193
I3
aa(lp2194
I3
aa(lp2195
I3
aa(lp2196
I3
aa(lp2197
I3
aa(lp2198
I3
aa(lp2199
I3
aa(lp2200
I3
aa(lp2201
I3
aa(lp2202
I3
aa(lp2203
I3
aa(lp2204
I3
aa(lp2205
I3
aa(lp2206
I3
aa(lp2207
I3
aa(lp2208
I3
aa(lp2209
I3
aa(lp2210
I3
aa(lp2211
I3
aa(lp2212
I3
aa(lp2213
I3
aa(lp2214
I3
aa(lp2215
I3
aa(lp2216
I3
aa(lp2217
I3
aa(lp2218
I3
aa(lp2219
I3
aa(lp2220
I3
aa(lp2221
I3
aa(lp2222
I3
aa(lp2223
I3
aa(lp2224
I3
aa(lp2225
I3
aa(lp2226
I3
aa(lp2227
I3
aa(lp2228
I3
aa(lp2229
I3
aa(lp2230
I3
aa(lp2231
I3
aa(lp2232
I3
aa(lp2233
I3
aa(lp2234
I3
aa(lp2235
I3
aa(lp2236
I3
aa(lp2237
I3
aa(lp2238
I3
aa(lp2239
I3
aa(lp2240
I3
aa(lp2241
I3
aa(lp2242
I3
aa(lp2243
I3
aa(lp2244
I3
aa(lp2245
I3
aa(lp2246
I3
aa(lp2247
I3
aa(lp2248
I3
aa(lp2249
I3
aa(lp2250
I3
aa(lp2251
I3
aa(lp2252
I3
aa(lp2253
I3
aa(lp2254
I3
aa(lp2255
I3
aa(lp2256
I3
aa(lp2257
I3
aa(lp2258
I3
aa(lp2259
I3
aa(lp2260
I3
aa(lp2261
I3
aa(lp2262
I3
aa(lp2263
I3
aa(lp2264
I3
aa(lp2265
I3
aa(lp2266
I3
aa(lp2267
I3
aa(lp2268
I3
aa(lp2269
I3
aa(lp2270
I3
aa(lp2271
I3
aa(lp2272
I3
aa(lp2273
I3
aa(lp2274
I3
aa(lp2275
I3
aa(lp2276
I3
aa(lp2277
I3
aa(lp2278
I3
aa(lp2279
I3
aa(lp2280
I3
aa(lp2281
I3
aa(lp2282
I3
aa(lp2283
I3
aa(lp2284
I3
aa(lp2285
I3
aa(lp2286
I3
aa(lp2287
I3
aa(lp2288
I3
aa(lp2289
I3
aa(lp2290
I3
aa(lp2291
I3
aa(lp2292
I3
aa(lp2293
I3
aa(lp2294
I3
aa(lp2295
I3
aa(lp2296
I3
aa(lp2297
I3
aa(lp2298
I3
aa(lp2299
I3
aa(lp2300
I3
aa(lp2301
I3
aa(lp2302
I3
aa(lp2303
I3
aa(lp2304
I3
aa(lp2305
I3
aa(lp2306
I3
aa(lp2307
I3
aa(lp2308
I3
aa(lp2309
I3
aa(lp2310
I3
aa(lp2311
I3
aa(lp2312
I3
aa(lp2313
I3
aa(lp2314
I3
aa(lp2315
I3
aa(lp2316
I3
aa(lp2317
I3
aa(lp2318
I3
aa(lp2319
I3
aa(lp2320
I3
aa(lp2321
I3
aa(lp2322
I3
aa(lp2323
I3
aa(lp2324
I3
aa(lp2325
I3
aa(lp2326
I3
aa(lp2327
I3
aa(lp2328
I3
aa(lp2329
I3
aa(lp2330
I3
aa(lp2331
I3
aa(lp2332
I3
aa(lp2333
I3
aa(lp2334
I3
aa(lp2335
I3
aa(lp2336
I3
aa(lp2337
I3
aa(lp2338
I3
aa(lp2339
I3
aa(lp2340
I3
aa(lp2341
I3
aa(lp2342
I3
aa(lp2343
I3
aa(lp2344
I3
aa(lp2345
I3
aa(lp2346
I3
aa(lp2347
I3
aa(lp2348
I3
aa(lp2349
I3
aa(lp2350
I3
aa(lp2351
I3
aa(lp2352
I3
aa(lp2353
I3
aa(lp2354
I3
aa(lp2355
I3
aa(lp2356
I3
aa(lp2357
I3
aa(lp2358
I3
aa(lp2359
I3
aa(lp2360
I3
aa(lp2361
I3
aa(lp2362
I3
aa(lp2363
I3
aa(lp2364
I3
aa(lp2365
I3
aa(lp2366
I3
aa(lp2367
I3
aa(lp2368
I3
aa(lp2369
I3
aa(lp2370
I3
aa(lp2371
I3
aa(lp2372
I3
aa(lp2373
I3
aa(lp2374
I3
aa(lp2375
I3
aa(lp2376
I3
aa(lp2377
I3
aa(lp2378
I3
aa(lp2379
I3
aa(lp2380
I3
aa(lp2381
I3
aa(lp2382
I3
aa(lp2383
I3
aa(lp2384
I3
aa(lp2385
I3
aa(lp2386
I3
aa(lp2387
I3
aa(lp2388
I3
aa(lp2389
I3
aa(lp2390
I3
aa(lp2391
I3
aa(lp2392
I3
aa(lp2393
I3
aa(lp2394
I3
aa(lp2395
I3
aa(lp2396
I3
aa(lp2397
I3
aa(lp2398
I3
aa(lp2399
I3
aa(lp2400
I3
aa(lp2401
I3
aa(lp2402
I3
aa(lp2403
I3
aa(lp2404
I3
aa(lp2405
I3
aa(lp2406
I3
aa(lp2407
I3
aa(lp2408
I3
aa(lp2409
I3
aa(lp2410
I3
aa(lp2411
I3
aa(lp2412
I3
aa(lp2413
I3
aa(lp2414
I3
aa(lp2415
I3
aa(lp2416
I3
aa(lp2417
I3
aa(lp2418
I3
aa(lp2419
I3
aa(lp2420
I3
aa(lp2421
I3
aa(lp2422
I3
aa(lp2423
I3
aa(lp2424
I3
aa(lp2425
I3
aa(lp2426
I3
aa(lp2427
I3
aa(lp2428
I3
aa(lp2429
I3
aa(lp2430
I3
aa(lp2431
I3
aa(lp2432
I3
aa(lp2433
I3
aa(lp2434
I3
aa(lp2435
I3
aa(lp2436
I3
aa(lp2437
I3
aa(lp2438
I3
aa(lp2439
I3
aa(lp2440
I3
aa(lp2441
I3
aa(lp2442
I3
aa(lp2443
I3
aa(lp2444
I3
aa(lp2445
I3
aa(lp2446
I3
aa(lp2447
I3
aa(lp2448
I3
aa(lp2449
I3
aa(lp2450
I3
aa(lp2451
I3
aa(lp2452
I3
aa(lp2453
I3
aa(lp2454
I3
aa(lp2455
I3
aa(lp2456
I3
aa(lp2457
I3
aa(lp2458
I3
aa(lp2459
I3
aa(lp2460
I3
aa(lp2461
I3
aa(lp2462
I3
aa(lp2463
I3
aa(lp2464
I3
aa(lp2465
I3
aa(lp2466
I3
aa(lp2467
I3
aa(lp2468
I3
aa(lp2469
I3
aa(lp2470
I3
aa(lp2471
I3
aa(lp2472
I4
aa(lp2473
I4
aa(lp2474
I4
aa(lp2475
I4
aa(lp2476
I4
aa(lp2477
I4
aa(lp2478
I4
aa(lp2479
I4
aa(lp2480
I4
aa(lp2481
I4
aa(lp2482
I4
aa(lp2483
I4
aa(lp2484
I4
aa(lp2485
I4
aa(lp2486
I4
aa(lp2487
I4
aa(lp2488
I4
aa(lp2489
I4
aa(lp2490
I4
aa(lp2491
I4
aa(lp2492
I4
aa(lp2493
I4
aa(lp2494
I4
aa(lp2495
I4
aa(lp2496
I4
aa(lp2497
I4
aa(lp2498
I4
aa(lp2499
I4
aa(lp2500
I4
aa(lp2501
I4
aa(lp2502
I4
aa(lp2503
I4
aa(lp2504
I4
aa(lp2505
I4
aa(lp2506
I4
aa(lp2507
I4
aa(lp2508
I4
aa(lp2509
I4
aa(lp2510
I4
aa(lp2511
I4
aa(lp2512
I4
aa(lp2513
I4
aa(lp2514
I4
aa(lp2515
I4
aa(lp2516
I4
aa(lp2517
I4
aa(lp2518
I4
aa(lp2519
I4
aa(lp2520
I4
aa(lp2521
I4
aa(lp2522
I4
aa(lp2523
I4
aa(lp2524
I4
aa(lp2525
I4
aa(lp2526
I4
aa(lp2527
I4
aa(lp2528
I4
aa(lp2529
I4
aa(lp2530
I4
aa(lp2531
I4
aa(lp2532
I4
aa(lp2533
I4
aa(lp2534
I4
aa(lp2535
I4
aa(lp2536
I4
aa(lp2537
I4
aa(lp2538
I4
aa(lp2539
I4
aa(lp2540
I4
aa(lp2541
I4
aa(lp2542
I4
aa(lp2543
I4
aa(lp2544
I4
aa(lp2545
I4
aa(lp2546
I4
aa(lp2547
I4
aa(lp2548
I4
aa(lp2549
I4
aa(lp2550
I4
aa(lp2551
I4
aa(lp2552
I4
aa(lp2553
I4
aa(lp2554
I4
aa(lp2555
I4
aa(lp2556
I4
aa(lp2557
I4
aa(lp2558
I4
aa(lp2559
I4
aa(lp2560
I4
aa(lp2561
I4
aa(lp2562
I4
aa(lp2563
I4
aa(lp2564
I4
aa(lp2565
I4
aa(lp2566
I4
aa(lp2567
I4
aa(lp2568
I4
aa(lp2569
I4
aa(lp2570
I4
aa(lp2571
I4
aa(lp2572
I4
aa(lp2573
I4
aa(lp2574
I4
aa(lp2575
I4
aa(lp2576
I4
aa(lp2577
I4
aa(lp2578
I4
aa(lp2579
I4
aa(lp2580
I4
aa(lp2581
I4
aa(lp2582
I4
aa(lp2583
I4
aa(lp2584
I4
aa(lp2585
I4
aa(lp2586
I4
aa(lp2587
I4
aa(lp2588
I4
aa(lp2589
I4
aa(lp2590
I4
aa(lp2591
I4
aa(lp2592
I4
aa(lp2593
I4
aa(lp2594
I4
aa(lp2595
I4
aa(lp2596
I4
aa(lp2597
I4
aa(lp2598
I4
aa(lp2599
I4
aa(lp2600
I4
aa(lp2601
I4
aa(lp2602
I4
aa(lp2603
I4
aa(lp2604
I4
aa(lp2605
I4
aa(lp2606
I4
aa(lp2607
I4
aa(lp2608
I4
aa(lp2609
I4
aa(lp2610
I4
aa(lp2611
I4
aa(lp2612
I4
aa(lp2613
I4
aa(lp2614
I4
aa(lp2615
I4
aa(lp2616
I4
aa(lp2617
I4
aa(lp2618
I4
aa(lp2619
I4
aa(lp2620
I4
aa(lp2621
I4
aa(lp2622
I4
aa(lp2623
I4
aa(lp2624
I4
aa(lp2625
I4
aa(lp2626
I4
aa(lp2627
I4
aa(lp2628
I4
aa(lp2629
I4
aa(lp2630
I4
aa(lp2631
I4
aa(lp2632
I4
aa(lp2633
I4
aa(lp2634
I4
aa(lp2635
I4
aa(lp2636
I4
aa(lp2637
I4
aa(lp2638
I4
aa(lp2639
I4
aa(lp2640
I4
aa(lp2641
I4
aa(lp2642
I4
aa(lp2643
I4
aa(lp2644
I4
aa(lp2645
I4
aa(lp2646
I4
aa(lp2647
I4
aa(lp2648
I4
aa(lp2649
I4
aa(lp2650
I4
aa(lp2651
I4
aa(lp2652
I4
aa(lp2653
I4
aa(lp2654
I4
aa(lp2655
I4
aa(lp2656
I4
aa(lp2657
I4
aa(lp2658
I4
aa(lp2659
I4
aa(lp2660
I4
aa(lp2661
I4
aa(lp2662
I4
aa(lp2663
I4
aa(lp2664
I4
aa(lp2665
I4
aa(lp2666
I4
aa(lp2667
I4
aa(lp2668
I4
aa(lp2669
I4
aa(lp2670
I4
aa(lp2671
I4
aa(lp2672
I4
aa(lp2673
I4
aa(lp2674
I4
aa(lp2675
I4
aa(lp2676
I4
aa(lp2677
I4
aa(lp2678
I4
aa(lp2679
I4
aa(lp2680
I4
aa(lp2681
I4
aa(lp2682
I4
aa(lp2683
I4
aa(lp2684
I4
aa(lp2685
I4
aa(lp2686
I4
aa(lp2687
I4
aa(lp2688
I4
aa(lp2689
I4
aa(lp2690
I4
aa(lp2691
I4
aa(lp2692
I4
aa(lp2693
I4
aa(lp2694
I4
aa(lp2695
I4
aa(lp2696
I4
aa(lp2697
I4
aa(lp2698
I4
aa(lp2699
I4
aa(lp2700
I4
aa(lp2701
I4
aa(lp2702
I4
aa(lp2703
I4
aa(lp2704
I4
aa(lp2705
I4
aa(lp2706
I4
aa(lp2707
I4
aa(lp2708
I4
aa(lp2709
I4
aa(lp2710
I4
aa(lp2711
I4
aa(lp2712
I4
aa(lp2713
I4
aa(lp2714
I4
aa(lp2715
I4
aa(lp2716
I4
aa(lp2717
I4
aa(lp2718
I4
aa(lp2719
I4
aa(lp2720
I4
aa(lp2721
I4
aa(lp2722
I4
aa(lp2723
I4
aa(lp2724
I4
aa(lp2725
I4
aa(lp2726
I4
aa(lp2727
I4
aa(lp2728
I4
aa(lp2729
I4
aa(lp2730
I4
aa(lp2731
I4
aa(lp2732
I4
aa(lp2733
I4
aa(lp2734
I4
aa(lp2735
I4
aa(lp2736
I4
aa(lp2737
I4
aa(lp2738
I4
aa(lp2739
I4
aa(lp2740
I4
aa(lp2741
I4
aa(lp2742
I4
aa(lp2743
I4
aa(lp2744
I4
aa(lp2745
I4
aa(lp2746
I4
aa(lp2747
I4
aa(lp2748
I4
aa(lp2749
I4
aa(lp2750
I4
aa(lp2751
I4
aa(lp2752
I4
aa(lp2753
I4
aa(lp2754
I4
aa(lp2755
I4
aa(lp2756
I4
aa(lp2757
I4
aa(lp2758
I4
aa(lp2759
I4
aa(lp2760
I4
aa(lp2761
I4
aa(lp2762
I4
aa(lp2763
I4
aa(lp2764
I4
aa(lp2765
I4
aa(lp2766
I4
aa(lp2767
I4
aa(lp2768
I4
aa(lp2769
I4
aa(lp2770
I4
aa(lp2771
I4
aa(lp2772
I4
aa(lp2773
I4
aa(lp2774
I4
aa(lp2775
I4
aa(lp2776
I4
aa(lp2777
I4
aa(lp2778
I4
aa(lp2779
I4
aa(lp2780
I4
aa(lp2781
I4
aa(lp2782
I4
aa(lp2783
I4
aa(lp2784
I4
aa(lp2785
I4
aa(lp2786
I4
aa(lp2787
I4
aa(lp2788
I4
aa(lp2789
I4
aa(lp2790
I4
aa(lp2791
I4
aa(lp2792
I4
aa(lp2793
I4
aa(lp2794
I4
aa(lp2795
I4
aa(lp2796
I4
aa(lp2797
I4
aa(lp2798
I4
aa(lp2799
I4
aa(lp2800
I4
aa(lp2801
I4
aa(lp2802
I4
aa(lp2803
I4
aa(lp2804
I4
aa(lp2805
I4
aa(lp2806
I4
aa(lp2807
I4
aa(lp2808
I4
aa(lp2809
I4
aa(lp2810
I4
aa(lp2811
I4
aa(lp2812
I4
aa(lp2813
I4
aa(lp2814
I4
aa(lp2815
I4
aa(lp2816
I4
aa(lp2817
I4
aa(lp2818
I4
aa(lp2819
I4
aa(lp2820
I4
aa(lp2821
I4
aa(lp2822
I4
aa(lp2823
I4
aa(lp2824
I4
aa(lp2825
I4
aa(lp2826
I4
aa(lp2827
I4
aa(lp2828
I4
aa(lp2829
I4
aa(lp2830
I4
aa(lp2831
I4
aa(lp2832
I4
aa(lp2833
I4
aa(lp2834
I4
aa(lp2835
I4
aa(lp2836
I4
aa(lp2837
I4
aa(lp2838
I4
aa(lp2839
I4
aa(lp2840
I4
aa(lp2841
I4
aa(lp2842
I4
aa(lp2843
I4
aa(lp2844
I4
aa(lp2845
I4
aa(lp2846
I4
aa(lp2847
I4
aa(lp2848
I4
aa(lp2849
I4
aa(lp2850
I4
aa(lp2851
I4
aa(lp2852
I4
aa(lp2853
I4
aa(lp2854
I4
aa(lp2855
I4
aa(lp2856
I4
aa(lp2857
I4
aa(lp2858
I4
aa(lp2859
I4
aa(lp2860
I4
aa(lp2861
I4
aa(lp2862
I4
aa(lp2863
I4
aa(lp2864
I4
aa(lp2865
I4
aa(lp2866
I4
aa(lp2867
I4
aa(lp2868
I4
aa(lp2869
I4
aa(lp2870
I4
aa(lp2871
I4
aa(lp2872
I4
aa(lp2873
I4
aa(lp2874
I4
aa(lp2875
I4
aa(lp2876
I4
aa(lp2877
I4
aa(lp2878
I4
aa(lp2879
I4
aa(lp2880
I4
aa(lp2881
I4
aa(lp2882
I4
aa(lp2883
I4
aa(lp2884
I4
aa(lp2885
I4
aa(lp2886
I4
aa(lp2887
I4
aa(lp2888
I4
aa(lp2889
I4
aa(lp2890
I4
aa(lp2891
I4
aa(lp2892
I4
aa(lp2893
I4
aa(lp2894
I4
aa(lp2895
I4
aa(lp2896
I4
aa(lp2897
I4
aa(lp2898
I4
aa(lp2899
I4
aa(lp2900
I4
aa(lp2901
I4
aa(lp2902
I4
aa(lp2903
I4
aa(lp2904
I4
aa(lp2905
I4
aa(lp2906
I4
aa(lp2907
I4
aa(lp2908
I4
aa(lp2909
I4
aa(lp2910
I4
aa(lp2911
I4
aa(lp2912
I4
aa(lp2913
I4
aa(lp2914
I4
aa(lp2915
I4
aa(lp2916
I4
aa(lp2917
I4
aa(lp2918
I4
aa(lp2919
I4
aa(lp2920
I4
aa(lp2921
I4
aa(lp2922
I4
aa(lp2923
I4
aa(lp2924
I4
aa(lp2925
I4
aa(lp2926
I4
aa(lp2927
I4
aa(lp2928
I4
aa(lp2929
I4
aa(lp2930
I4
aa(lp2931
I4
aa(lp2932
I4
aa(lp2933
I4
aa(lp2934
I4
aa(lp2935
I4
aa(lp2936
I4
aa(lp2937
I4
aa(lp2938
I4
aa(lp2939
I4
aa(lp2940
I4
aa(lp2941
I4
aa(lp2942
I4
aa(lp2943
I4
aa(lp2944
I4
aa(lp2945
I4
aa(lp2946
I4
aa(lp2947
I4
aa(lp2948
I4
aa(lp2949
I4
aa(lp2950
I4
aa(lp2951
I4
aa(lp2952
I4
aa(lp2953
I4
aa(lp2954
I4
aa(lp2955
I4
aa(lp2956
I4
aa(lp2957
I4
aa(lp2958
I4
aa(lp2959
I4
aa(lp2960
I4
aa(lp2961
I4
aa(lp2962
I4
aa(lp2963
I4
aa(lp2964
I4
aa(lp2965
I4
aa(lp2966
I4
aa(lp2967
I4
aa(lp2968
I4
aa(lp2969
I4
aa(lp2970
I4
aa(lp2971
I4
aa(lp2972
I4
aa(lp2973
I4
aa(lp2974
I4
aa(lp2975
I4
aa(lp2976
I4
aa(lp2977
I4
aa(lp2978
I4
aa(lp2979
I4
aa(lp2980
I4
aa(lp2981
I4
aa(lp2982
I4
aa(lp2983
I4
aa(lp2984
I4
aa(lp2985
I4
aa(lp2986
I4
aa(lp2987
I4
aa(lp2988
I4
aa(lp2989
I4
aa(lp2990
I4
aa(lp2991
I4
aa(lp2992
I4
aa(lp2993
I4
aa(lp2994
I4
aa(lp2995
I4
aa(lp2996
I4
aa(lp2997
I4
aa(lp2998
I4
aa(lp2999
I4
aa(lp3000
I4
aa(lp3001
I4
aa(lp3002
I4
aa(lp3003
I4
aa(lp3004
I4
aa(lp3005
I4
aa(lp3006
I4
aa(lp3007
I4
aa(lp3008
I4
aa(lp3009
I4
aa(lp3010
I4
aa(lp3011
I4
aa(lp3012
I4
aa(lp3013
I4
aa(lp3014
I4
aa(lp3015
I4
aa(lp3016
I4
aa(lp3017
I4
aa(lp3018
I4
aa(lp3019
I4
aa(lp3020
I4
aa(lp3021
I4
aa(lp3022
I4
aa(lp3023
I4
aa(lp3024
I4
aa(lp3025
I4
aa(lp3026
I4
aa(lp3027
I4
aa(lp3028
I4
aa(lp3029
I4
aa(lp3030
I4
aa(lp3031
I4
aa(lp3032
I4
aa(lp3033
I4
aa(lp3034
I4
aa(lp3035
I4
aa(lp3036
I4
aa(lp3037
I4
aa(lp3038
I4
aa(lp3039
I4
aa(lp3040
I4
aa(lp3041
I4
aa(lp3042
I4
aa(lp3043
I4
aa(lp3044
I4
aa(lp3045
I4
aa(lp3046
I4
aa(lp3047
I4
aa(lp3048
I4
aa(lp3049
I4
aa(lp3050
I4
aa(lp3051
I4
aa(lp3052
I4
aa(lp3053
I4
aa(lp3054
I4
aa(lp3055
I4
aa(lp3056
I4
aa(lp3057
I4
aa(lp3058
I4
aa(lp3059
I4
aa(lp3060
I4
aa(lp3061
I4
aa(lp3062
I4
aa(lp3063
I4
aa(lp3064
I4
aa(lp3065
I4
aa(lp3066
I4
aa(lp3067
I4
aa(lp3068
I4
aa(lp3069
I4
aa(lp3070
I4
aa(lp3071
I4
aa(lp3072
I4
aa(lp3073
I4
aa(lp3074
I4
aa(lp3075
I4
aa(lp3076
I4
aa(lp3077
I4
aa(lp3078
I4
aa(lp3079
I4
aa(lp3080
I4
aa(lp3081
I4
aa(lp3082
I4
aa(lp3083
I4
aa(lp3084
I4
aa(lp3085
I4
aa(lp3086
I4
aa(lp3087
I4
aa(lp3088
I4
aa(lp3089
I4
aa(lp3090
I4
aa(lp3091
I4
aa(lp3092
I4
aa(lp3093
I4
aa(lp3094
I4
aa(lp3095
I4
aa(lp3096
I4
aa(lp3097
I4
aa(lp3098
I4
aa(lp3099
I4
aa(lp3100
I4
aa(lp3101
I4
aa(lp3102
I4
aa(lp3103
I4
aa(lp3104
I4
aa(lp3105
I4
aa(lp3106
I4
aa(lp3107
I4
aa(lp3108
I4
aa(lp3109
I4
aa(lp3110
I4
aa(lp3111
I4
aa(lp3112
I4
aa(lp3113
I4
aa(lp3114
I4
aa(lp3115
I4
aa(lp3116
I4
aa(lp3117
I4
aa(lp3118
I4
aa(lp3119
I4
aa(lp3120
I4
aa(lp3121
I4
aa(lp3122
I4
aa(lp3123
I4
aa(lp3124
I4
aa(lp3125
I4
aa(lp3126
I4
aa(lp3127
I4
aa(lp3128
I4
aa(lp3129
I4
aa(lp3130
I4
aa(lp3131
I4
aa(lp3132
I4
aa(lp3133
I4
aa(lp3134
I4
aa(lp3135
I4
aa(lp3136
I4
aa(lp3137
I4
aa(lp3138
I4
aa(lp3139
I4
aa(lp3140
I4
aa(lp3141
I4
aa(lp3142
I4
aa(lp3143
I4
aa(lp3144
I4
aa(lp3145
I4
aa(lp3146
I4
aa(lp3147
I4
aa(lp3148
I4
aa(lp3149
I4
aa(lp3150
I4
aa(lp3151
I4
aa(lp3152
I4
aa(lp3153
I4
aa(lp3154
I4
aa(lp3155
I4
aa(lp3156
I4
aa(lp3157
I4
aa(lp3158
I4
aa(lp3159
I4
aa(lp3160
I4
aa(lp3161
I4
aa(lp3162
I4
aa(lp3163
I4
aa(lp3164
I4
aa(lp3165
I4
aa(lp3166
I4
aa(lp3167
I4
aa(lp3168
I4
aa(lp3169
I4
aa(lp3170
I4
aa(lp3171
I4
aa(lp3172
I4
aa(lp3173
I4
aa(lp3174
I4
aa(lp3175
I4
aa(lp3176
I4
aa(lp3177
I4
aa(lp3178
I4
aa(lp3179
I4
aa(lp3180
I4
aa(lp3181
I4
aa(lp3182
I4
aa(lp3183
I4
aa(lp3184
I4
aa(lp3185
I4
aa(lp3186
I4
aa(lp3187
I4
aa(lp3188
I4
aa(lp3189
I4
aa(lp3190
I4
aa(lp3191
I4
aa(lp3192
I4
aa(lp3193
I4
aa(lp3194
I4
aa(lp3195
I4
aa(lp3196
I4
aa(lp3197
I4
aa(lp3198
I4
aa(lp3199
I4
aa(lp3200
I4
aa(lp3201
I4
aa(lp3202
I4
aa(lp3203
I4
aa(lp3204
I4
aa(lp3205
I4
aa(lp3206
I4
aa(lp3207
I4
aa(lp3208
I4
aa(lp3209
I4
aa(lp3210
I4
aa(lp3211
I4
aa(lp3212
I4
aa(lp3213
I4
aa(lp3214
I4
aa(lp3215
I4
aa(lp3216
I4
aa(lp3217
I4
aa(lp3218
I4
aa(lp3219
I4
aa(lp3220
I4
aa(lp3221
I4
aa(lp3222
I4
aa(lp3223
I4
aa(lp3224
I4
aa(lp3225
I4
aa(lp3226
I4
aa(lp3227
I4
aa(lp3228
I4
aa(lp3229
I4
aa(lp3230
I4
aa(lp3231
I4
aa(lp3232
I4
aa(lp3233
I4
aa(lp3234
I4
aa(lp3235
I4
aa(lp3236
I4
aa(lp3237
I4
aa(lp3238
I4
aa(lp3239
I4
aa(lp3240
I4
aa(lp3241
I4
aa(lp3242
I4
aa(lp3243
I4
aa(lp3244
I4
aa(lp3245
I4
aa(lp3246
I4
aa(lp3247
I4
aa(lp3248
I4
aa(lp3249
I4
aa(lp3250
I4
aa(lp3251
I4
aa(lp3252
I4
aa(lp3253
I4
aa(lp3254
I4
aa(lp3255
I4
aa(lp3256
I4
aa(lp3257
I4
aa(lp3258
I4
aa(lp3259
I4
aa(lp3260
I4
aa(lp3261
I4
aa(lp3262
I4
aa(lp3263
I4
aa(lp3264
I4
aa(lp3265
I4
aa(lp3266
I4
aa(lp3267
I4
aa(lp3268
I4
aa(lp3269
I4
aa(lp3270
I4
aa(lp3271
I4
aa(lp3272
I4
aa(lp3273
I4
aa(lp3274
I4
aa(lp3275
I4
aa(lp3276
I4
aa(lp3277
I4
aa(lp3278
I4
aa(lp3279
I4
aa(lp3280
I4
aa(lp3281
I4
aa(lp3282
I4
aa(lp3283
I4
aa(lp3284
I4
aa(lp3285
I4
aa(lp3286
I4
aa(lp3287
I4
aa(lp3288
I4
aa(lp3289
I4
aa(lp3290
I4
aa(lp3291
I4
aa(lp3292
I4
aa(lp3293
I4
aa(lp3294
I4
aa(lp3295
I4
aa(lp3296
I4
aa(lp3297
I4
aa(lp3298
I4
aa(lp3299
I4
aa(lp3300
I4
aa(lp3301
I4
aa(lp3302
I4
aa(lp3303
I4
aa(lp3304
I4
aa(lp3305
I4
aa(lp3306
I4
aa(lp3307
I4
aa(lp3308
I4
aa(lp3309
I4
aa(lp3310
I4
aa(lp3311
I4
aa(lp3312
I4
aa(lp3313
I4
aa(lp3314
I4
aa(lp3315
I4
aa(lp3316
I4
aa(lp3317
I4
aa(lp3318
I4
aa(lp3319
I4
aa(lp3320
I4
aa(lp3321
I4
aa(lp3322
I4
aa(lp3323
I4
aa(lp3324
I4
aa(lp3325
I4
aa(lp3326
I4
aa(lp3327
I4
aa(lp3328
I4
aa(lp3329
I4
aa(lp3330
I4
aa(lp3331
I4
aa(lp3332
I4
aa(lp3333
I4
aa(lp3334
I4
aa(lp3335
I4
aa(lp3336
I4
aa(lp3337
I4
aa(lp3338
I4
aa(lp3339
I4
aa(lp3340
I4
aa(lp3341
I4
aa(lp3342
I4
aa(lp3343
I4
aa(lp3344
I4
aa(lp3345
I4
aa(lp3346
I4
aa(lp3347
I4
aa(lp3348
I4
aa(lp3349
I4
aa(lp3350
I4
aa(lp3351
I4
aa(lp3352
I4
aa(lp3353
I4
aa(lp3354
I4
aa(lp3355
I4
aa(lp3356
I4
aa(lp3357
I4
aa(lp3358
I4
aa(lp3359
I4
aa(lp3360
I4
aa(lp3361
I4
aa(lp3362
I4
aa(lp3363
I4
aa(lp3364
I4
aa(lp3365
I4
aa(lp3366
I4
aa(lp3367
I4
aa(lp3368
I4
aa(lp3369
I4
aa(lp3370
I4
aa(lp3371
I4
aa(lp3372
I4
aa(lp3373
I4
aa(lp3374
I4
aa(lp3375
I4
aa(lp3376
I4
aa(lp3377
I4
aa(lp3378
I4
aa(lp3379
I4
aa(lp3380
I4
aa(lp3381
I4
aa(lp3382
I4
aa(lp3383
I4
aa(lp3384
I4
aa(lp3385
I4
aa(lp3386
I4
aa(lp3387
I4
aa(lp3388
I4
aa(lp3389
I4
aa(lp3390
I4
aa(lp3391
I4
aa(lp3392
I4
aa(lp3393
I4
aa(lp3394
I4
aa(lp3395
I4
aa(lp3396
I4
aa(lp3397
I4
aa(lp3398
I4
aa(lp3399
I4
aa(lp3400
I4
aa(lp3401
I4
aa(lp3402
I4
aa(lp3403
I4
aa(lp3404
I4
aa(lp3405
I4
aa(lp3406
I4
aa(lp3407
I4
aa(lp3408
I4
aa(lp3409
I4
aa(lp3410
I4
aa(lp3411
I4
aa(lp3412
I4
aa(lp3413
I4
aa(lp3414
I4
aa(lp3415
I4
aa(lp3416
I4
aa(lp3417
I4
aa(lp3418
I4
aa(lp3419
I4
aa(lp3420
I4
aa(lp3421
I4
aa(lp3422
I4
aa(lp3423
I4
aa(lp3424
I4
aa(lp3425
I4
aa(lp3426
I4
aa(lp3427
I4
aa(lp3428
I4
aa(lp3429
I4
aa(lp3430
I4
aa(lp3431
I4
aa(lp3432
I4
aa(lp3433
I4
aa(lp3434
I4
aa(lp3435
I4
aa(lp3436
I4
aa(lp3437
I4
aa(lp3438
I4
aa(lp3439
I4
aa(lp3440
I4
aa(lp3441
I4
aa(lp3442
I4
aa(lp3443
I4
aa(lp3444
I4
aa(lp3445
I4
aa(lp3446
I4
aa(lp3447
I4
aa(lp3448
I4
aa(lp3449
I4
aa(lp3450
I4
aa(lp3451
I4
aa(lp3452
I4
aa(lp3453
I4
aa(lp3454
I4
aa(lp3455
I4
aa(lp3456
I4
aa(lp3457
I4
aa(lp3458
I4
aa(lp3459
I4
aa(lp3460
I4
aa(lp3461
I4
aa(lp3462
I4
aa(lp3463
I4
aa(lp3464
I4
aa(lp3465
I4
aa(lp3466
I4
aa(lp3467
I4
aa(lp3468
I4
aa(lp3469
I4
aa(lp3470
I4
aa(lp3471
I4
aa(lp3472
I4
aa(lp3473
I4
aa(lp3474
I4
aa(lp3475
I4
aa(lp3476
I4
aa(lp3477
I4
aa(lp3478
I4
aa(lp3479
I4
aa(lp3480
I4
aa(lp3481
I4
aa(lp3482
I4
aa(lp3483
I4
aa(lp3484
I4
aa(lp3485
I4
aa(lp3486
I4
aa(lp3487
I4
aa(lp3488
I4
aa(lp3489
I4
aa(lp3490
I4
aa(lp3491
I4
aa(lp3492
I4
aa(lp3493
I4
aa(lp3494
I4
aa(lp3495
I4
aa(lp3496
I4
aa(lp3497
I4
aa(lp3498
I4
aa(lp3499
I4
aa(lp3500
I4
aa(lp3501
I4
aa(lp3502
I4
aa(lp3503
I4
aa(lp3504
I4
aa(lp3505
I4
aa(lp3506
I4
aa(lp3507
I4
aa(lp3508
I4
aa(lp3509
I4
aa(lp3510
I4
aa(lp3511
I4
aa(lp3512
I4
aa(lp3513
I4
aa(lp3514
I4
aa(lp3515
I4
aa(lp3516
I4
aa(lp3517
I4
aa(lp3518
I4
aa(lp3519
I4
aa(lp3520
I4
aa(lp3521
I4
aa(lp3522
I4
aa(lp3523
I4
aa(lp3524
I4
aa(lp3525
I4
aa(lp3526
I4
aa(lp3527
I4
aa(lp3528
I4
aa(lp3529
I4
aa(lp3530
I4
aa(lp3531
I4
aa(lp3532
I4
aa(lp3533
I4
aa(lp3534
I4
aa(lp3535
I4
aa(lp3536
I4
aa(lp3537
I4
aa(lp3538
I4
aa(lp3539
I4
aa(lp3540
I4
aa(lp3541
I4
aa(lp3542
I4
aa(lp3543
I4
aa(lp3544
I4
aa(lp3545
I4
aa(lp3546
I4
aa(lp3547
I4
aa(lp3548
I4
aa(lp3549
I4
aa(lp3550
I4
aa(lp3551
I4
aa(lp3552
I4
aa(lp3553
I4
aa(lp3554
I4
aa(lp3555
I4
aa(lp3556
I4
aa(lp3557
I4
aa(lp3558
I4
aa(lp3559
I4
aa(lp3560
I4
aa(lp3561
I4
aa(lp3562
I4
aa(lp3563
I4
aa(lp3564
I4
aa(lp3565
I4
aa(lp3566
I4
aa(lp3567
I4
aa(lp3568
I4
aa(lp3569
I4
aa(lp3570
I4
aa(lp3571
I4
aa(lp3572
I4
aa(lp3573
I4
aa(lp3574
I4
aa(lp3575
I4
aa(lp3576
I4
aa(lp3577
I4
aa(lp3578
I4
aa(lp3579
I4
aa(lp3580
I4
aa(lp3581
I4
aa(lp3582
I4
aa(lp3583
I4
aa(lp3584
I4
aa(lp3585
I4
aa(lp3586
I4
aa(lp3587
I4
aa(lp3588
I4
aa(lp3589
I4
aa(lp3590
I4
aa(lp3591
I4
aa(lp3592
I4
aa(lp3593
I4
aa(lp3594
I4
aa(lp3595
I4
aa(lp3596
I4
aa(lp3597
I4
aa(lp3598
I4
aa(lp3599
I4
aa(lp3600
I4
aa(lp3601
I4
aa(lp3602
I4
aa(lp3603
I4
aa(lp3604
I4
aa(lp3605
I4
aa(lp3606
I4
aa(lp3607
I4
aa(lp3608
I4
aa(lp3609
I4
aa(lp3610
I4
aa(lp3611
I4
aa(lp3612
I4
aa(lp3613
I4
aa(lp3614
I4
aa(lp3615
I4
aa(lp3616
I4
aa(lp3617
I4
aa(lp3618
I4
aa(lp3619
I4
aa(lp3620
I4
aa(lp3621
I4
aa(lp3622
I4
aa(lp3623
I4
aa(lp3624
I4
aa(lp3625
I4
aa(lp3626
I4
aa(lp3627
I4
aa(lp3628
I4
aa(lp3629
I4
aa(lp3630
I4
aa(lp3631
I4
aa(lp3632
I4
aa(lp3633
I4
aa(lp3634
I4
aa(lp3635
I4
aa(lp3636
I4
aa(lp3637
I4
aa(lp3638
I4
aa(lp3639
I4
aa(lp3640
I4
aa(lp3641
I4
aa(lp3642
I4
aa(lp3643
I4
aa(lp3644
I4
aa(lp3645
I4
aa(lp3646
I4
aa(lp3647
I4
aa(lp3648
I4
aa(lp3649
I4
aa(lp3650
I4
aa(lp3651
I4
aa(lp3652
I4
aa(lp3653
I4
aa(lp3654
I4
aa(lp3655
I4
aa(lp3656
I4
aa(lp3657
I4
aa(lp3658
I4
aa(lp3659
I4
aa(lp3660
I4
aa(lp3661
I4
aa(lp3662
I4
aa(lp3663
I4
aa(lp3664
I4
aa(lp3665
I4
aa(lp3666
I4
aa(lp3667
I4
aa(lp3668
I4
aa(lp3669
I4
aa(lp3670
I4
aa(lp3671
I4
aa(lp3672
I4
aa(lp3673
I4
aa(lp3674
I4
aa(lp3675
I4
aa(lp3676
I4
aa(lp3677
I4
aa(lp3678
I4
aa(lp3679
I4
aa(lp3680
I4
aa(lp3681
I4
aa(lp3682
I4
aa(lp3683
I4
aa(lp3684
I4
aa(lp3685
I4
aa(lp3686
I4
aa(lp3687
I4
aa(lp3688
I4
aa(lp3689
I4
aa(lp3690
I4
aa(lp3691
I4
aa(lp3692
I4
aa(lp3693
I4
aa(lp3694
I4
aa(lp3695
I4
aa(lp3696
I4
aa(lp3697
I4
aa(lp3698
I4
aa(lp3699
I4
aa(lp3700
I4
aa(lp3701
I4
aa(lp3702
I4
aa(lp3703
I4
aa(lp3704
I4
aa(lp3705
I4
aa(lp3706
I4
aa(lp3707
I4
aa(lp3708
I4
aa(lp3709
I4
aa(lp3710
I4
aa(lp3711
I4
aa(lp3712
I4
aa(lp3713
I4
aa(lp3714
I4
aa(lp3715
I4
aa(lp3716
I4
aa(lp3717
I4
aa(lp3718
I4
aa(lp3719
I4
aa(lp3720
I4
aa(lp3721
I4
aa(lp3722
I4
aa(lp3723
I4
aa(lp3724
I4
aa(lp3725
I4
aa(lp3726
I4
aa(lp3727
I4
aa(lp3728
I4
aa(lp3729
I4
aa(lp3730
I4
aa(lp3731
I4
aa(lp3732
I4
aa(lp3733
I4
aa(lp3734
I4
aa(lp3735
I4
aa(lp3736
I4
aa(lp3737
I4
aa(lp3738
I4
aa(lp3739
I4
aa(lp3740
I4
aa(lp3741
I4
aa(lp3742
I4
aa(lp3743
I4
aa(lp3744
I4
aa(lp3745
I4
aa(lp3746
I4
aa(lp3747
I4
aa(lp3748
I4
aa(lp3749
I4
aa(lp3750
I4
aa(lp3751
I4
aa(lp3752
I4
aa(lp3753
I4
aa(lp3754
I4
aa(lp3755
I4
aa(lp3756
I4
aa(lp3757
I4
aa(lp3758
I4
aa(lp3759
I4
aa(lp3760
I4
aa(lp3761
I4
aa(lp3762
I4
aa(lp3763
I4
aa(lp3764
I4
aa(lp3765
I4
aa(lp3766
I4
aa(lp3767
I4
aa(lp3768
I4
aa(lp3769
I4
aa(lp3770
I4
aa(lp3771
I4
aa(lp3772
I4
aa(lp3773
I4
aa(lp3774
I4
aa(lp3775
I4
aa(lp3776
I4
aa(lp3777
I4
aa(lp3778
I4
aa(lp3779
I4
aa(lp3780
I4
aa(lp3781
I4
aa(lp3782
I4
aa(lp3783
I4
aa(lp3784
I4
aa(lp3785
I4
aa(lp3786
I4
aa(lp3787
I4
aa(lp3788
I4
aa(lp3789
I4
aa(lp3790
I4
aa(lp3791
I4
aa(lp3792
I4
aa(lp3793
I4
aa(lp3794
I4
aa(lp3795
I4
aa(lp3796
I4
aa(lp3797
I4
aa(lp3798
I4
aa(lp3799
I4
aa(lp3800
I4
aa(lp3801
I4
aa(lp3802
I4
aa(lp3803
I4
aa(lp3804
I4
aa(lp3805
I4
aa(lp3806
I4
aa(lp3807
I4
aa(lp3808
I4
aa(lp3809
I4
aa(lp3810
I4
aa(lp3811
I4
aa(lp3812
I4
aa(lp3813
I4
aa(lp3814
I4
aa(lp3815
I4
aa(lp3816
I4
aa(lp3817
I4
aa(lp3818
I4
aa(lp3819
I4
aa(lp3820
I4
aa(lp3821
I4
aa(lp3822
I4
aa(lp3823
I4
aa(lp3824
I4
aa(lp3825
I4
aa(lp3826
I4
aa(lp3827
I4
aa(lp3828
I4
aa(lp3829
I4
aa(lp3830
I4
aa(lp3831
I4
aa(lp3832
I4
aa(lp3833
I4
aa(lp3834
I4
aa(lp3835
I4
aa(lp3836
I4
aa(lp3837
I4
aa(lp3838
I4
aa(lp3839
I4
aa(lp3840
I4
aa(lp3841
I4
aa(lp3842
I4
aa(lp3843
I4
aa(lp3844
I4
aa(lp3845
I4
aa(lp3846
I4
aa(lp3847
I4
aa(lp3848
I4
aa(lp3849
I4
aa(lp3850
I4
aa(lp3851
I4
aa(lp3852
I4
aa(lp3853
I4
aa(lp3854
I4
aa(lp3855
I4
aa(lp3856
I4
aa(lp3857
I4
aa(lp3858
I4
aa(lp3859
I4
aa(lp3860
I4
aa(lp3861
I4
aa(lp3862
I4
aa(lp3863
I4
aa(lp3864
I4
aa(lp3865
I4
aa(lp3866
I4
aa(lp3867
I4
aa(lp3868
I4
aa(lp3869
I4
aa(lp3870
I4
aa(lp3871
I4
aa(lp3872
I4
aa(lp3873
I4
aa(lp3874
I4
aa(lp3875
I4
aa(lp3876
I4
aa(lp3877
I4
aa(lp3878
I4
aa(lp3879
I4
aa(lp3880
I4
aa(lp3881
I4
aa(lp3882
I4
aa(lp3883
I4
aa(lp3884
I4
aa(lp3885
I4
aa(lp3886
I4
aa(lp3887
I4
aa(lp3888
I4
aa(lp3889
I4
aa(lp3890
I4
aa(lp3891
I4
aa(lp3892
I4
aa(lp3893
I4
aa(lp3894
I4
aa(lp3895
I4
aa(lp3896
I4
aa(lp3897
I4
aa(lp3898
I4
aa(lp3899
I4
aa(lp3900
I4
aa(lp3901
I4
aa(lp3902
I4
aa(lp3903
I4
aa(lp3904
I4
aa(lp3905
I4
aa(lp3906
I4
aa(lp3907
I4
aa(lp3908
I4
aa(lp3909
I4
aa(lp3910
I4
aa(lp3911
I4
aa(lp3912
I4
aa(lp3913
I4
aa(lp3914
I4
aa(lp3915
I4
aa(lp3916
I4
aa(lp3917
I4
aa(lp3918
I4
aa(lp3919
I4
aa(lp3920
I4
aa(lp3921
I4
aa(lp3922
I4
aa(lp3923
I4
aa(lp3924
I4
aa(lp3925
I4
aa(lp3926
I4
aa(lp3927
I4
aa(lp3928
I4
aa(lp3929
I4
aa(lp3930
I4
aa(lp3931
I4
aa(lp3932
I4
aa(lp3933
I4
aa(lp3934
I4
aa(lp3935
I4
aa(lp3936
I4
aa(lp3937
I4
aa(lp3938
I4
aa(lp3939
I4
aa(lp3940
I4
aa(lp3941
I4
aa(lp3942
I4
aa(lp3943
I4
aa(lp3944
I4
aa(lp3945
I4
aa(lp3946
I4
aa(lp3947
I4
aa(lp3948
I4
aa(lp3949
I4
aa(lp3950
I4
aa(lp3951
I4
aa(lp3952
I4
aa(lp3953
I4
aa(lp3954
I4
aa(lp3955
I4
aa(lp3956
I4
aa(lp3957
I4
aa(lp3958
I4
aa(lp3959
I4
aa(lp3960
I4
aa(lp3961
I4
aa(lp3962
I4
aa(lp3963
I4
aa(lp3964
I4
aa(lp3965
I4
aa(lp3966
I4
aa(lp3967
I4
aa(lp3968
I4
aa(lp3969
I4
aa(lp3970
I4
aa(lp3971
I4
aa(lp3972
I4
aa(lp3973
I4
aa(lp3974
I4
aa(lp3975
I4
aa(lp3976
I4
aa(lp3977
I4
aa(lp3978
I4
aa(lp3979
I4
aa(lp3980
I4
aa(lp3981
I4
aa(lp3982
I4
aa(lp3983
I4
aa(lp3984
I4
aa(lp3985
I4
aa(lp3986
I4
aa(lp3987
I4
aa(lp3988
I4
aa(lp3989
I4
aa(lp3990
I4
aa(lp3991
I4
aa(lp3992
I4
aa(lp3993
I4
aa(lp3994
I4
aa(lp3995
I4
aa(lp3996
I4
aa(lp3997
I4
aa(lp3998
I4
aa(lp3999
I4
aa(lp4000
I4
aa(lp4001
I4
aa(lp4002
I4
aa(lp4003
I4
aa(lp4004
I4
aa(lp4005
I4
aa(lp4006
I4
aa(lp4007
I4
aa(lp4008
I4
aa(lp4009
I4
aa(lp4010
I4
aa(lp4011
I4
aa(lp4012
I4
aa(lp4013
I4
aa(lp4014
I4
aa(lp4015
I4
aa(lp4016
I4
aa(lp4017
I4
aa(lp4018
I4
aa(lp4019
I4
aa(lp4020
I4
aa(lp4021
I4
aa(lp4022
I4
aa(lp4023
I4
aa(lp4024
I4
aa(lp4025
I4
aa(lp4026
I4
aa(lp4027
I4
aa(lp4028
I4
aa(lp4029
I4
aa(lp4030
I4
aa(lp4031
I4
aa(lp4032
I4
aa(lp4033
I4
aa(lp4034
I4
aa(lp4035
I4
aa(lp4036
I4
aa(lp4037
I4
aa(lp4038
I4
aa(lp4039
I4
aa(lp4040
I4
aa(lp4041
I4
aa(lp4042
I4
aa(lp4043
I4
aa(lp4044
I4
aa(lp4045
I4
aa(lp4046
I4
aa(lp4047
I4
aa(lp4048
I4
aa(lp4049
I4
aa(lp4050
I4
aa(lp4051
I4
aa(lp4052
I4
aa(lp4053
I4
aa(lp4054
I4
aa(lp4055
I4
aa(lp4056
I4
aa(lp4057
I4
aa(lp4058
I4
aa(lp4059
I4
aa(lp4060
I4
aa(lp4061
I4
aa(lp4062
I4
aa(lp4063
I4
aa(lp4064
I4
aa(lp4065
I4
aa(lp4066
I4
aa(lp4067
I4
aa(lp4068
I4
aa(lp4069
I4
aa(lp4070
I4
aa(lp4071
I4
aa(lp4072
I4
aa(lp4073
I4
aa(lp4074
I4
aa(lp4075
I4
aa(lp4076
I4
aa(lp4077
I4
aa(lp4078
I4
aa(lp4079
I4
aa(lp4080
I4
aa(lp4081
I4
aa(lp4082
I4
aa(lp4083
I4
aa(lp4084
I4
aa(lp4085
I4
aa(lp4086
I4
aa(lp4087
I4
aa(lp4088
I4
aa(lp4089
I4
aa(lp4090
I4
aa(lp4091
I4
aa(lp4092
I4
aa(lp4093
I4
aa(lp4094
I4
aa(lp4095
I4
aa(lp4096
I4
aa(lp4097
I4
aa(lp4098
I4
aa(lp4099
I4
aa(lp4100
I4
aa(lp4101
I4
aa(lp4102
I4
aa(lp4103
I4
aa(lp4104
I4
aa(lp4105
I4
aa(lp4106
I4
aa(lp4107
I4
aa(lp4108
I4
aa(lp4109
I4
aa(lp4110
I4
aa(lp4111
I4
aa(lp4112
I4
aa(lp4113
I4
aa(lp4114
I4
aa(lp4115
I4
aa(lp4116
I4
aa(lp4117
I4
aa(lp4118
I4
aa(lp4119
I4
aa(lp4120
I4
aa(lp4121
I4
aa(lp4122
I4
aa(lp4123
I4
aa(lp4124
I4
aa(lp4125
I4
aa(lp4126
I4
aa(lp4127
I4
aa(lp4128
I4
aa(lp4129
I4
aa(lp4130
I4
aa(lp4131
I4
aa(lp4132
I4
aa(lp4133
I4
aa(lp4134
I4
aa(lp4135
I4
aa(lp4136
I4
aa(lp4137
I4
aa(lp4138
I4
aa(lp4139
I4
aa(lp4140
I4
aa(lp4141
I4
aa(lp4142
I4
aa(lp4143
I4
aa(lp4144
I4
aa(lp4145
I4
aa(lp4146
I4
aa(lp4147
I4
aa(lp4148
I4
aa(lp4149
I4
aa(lp4150
I4
aa(lp4151
I4
aa(lp4152
I4
aa(lp4153
I4
aa(lp4154
I4
aa(lp4155
I4
aa(lp4156
I4
aa(lp4157
I4
aa(lp4158
I4
aa(lp4159
I4
aa(lp4160
I4
aa(lp4161
I4
aa(lp4162
I4
aa(lp4163
I4
aa(lp4164
I4
aa(lp4165
I4
aa(lp4166
I4
aa(lp4167
I4
aa(lp4168
I4
aa(lp4169
I4
aa(lp4170
I4
aa(lp4171
I4
aa(lp4172
I4
aa(lp4173
I4
aa(lp4174
I4
aa(lp4175
I4
aa(lp4176
I4
aa(lp4177
I4
aa(lp4178
I4
aa(lp4179
I4
aa(lp4180
I4
aa(lp4181
I4
aa(lp4182
I4
aa(lp4183
I4
aa(lp4184
I4
aa(lp4185
I4
aa(lp4186
I4
aa(lp4187
I4
aa(lp4188
I4
aa(lp4189
I4
aa(lp4190
I4
aa(lp4191
I4
aa(lp4192
I4
aa(lp4193
I4
aa(lp4194
I4
aa(lp4195
I4
aa(lp4196
I4
aa(lp4197
I4
aa(lp4198
I4
aa(lp4199
I4
aa(lp4200
I4
aa(lp4201
I4
aa(lp4202
I4
aa(lp4203
I4
aa(lp4204
I4
aa(lp4205
I4
aa(lp4206
I4
aa(lp4207
I4
aa(lp4208
I4
aa(lp4209
I4
aa(lp4210
I4
aa(lp4211
I4
aa(lp4212
I4
aa(lp4213
I4
aa(lp4214
I4
aa(lp4215
I4
aa(lp4216
I4
aa(lp4217
I4
aa(lp4218
I4
aa(lp4219
I4
aa(lp4220
I4
aa(lp4221
I4
aa(lp4222
I4
aa(lp4223
I4
aa(lp4224
I4
aa(lp4225
I4
aa(lp4226
I4
aa(lp4227
I4
aa(lp4228
I4
aa(lp4229
I4
aa(lp4230
I4
aa(lp4231
I4
aa(lp4232
I4
aa(lp4233
I4
aa(lp4234
I4
aa(lp4235
I4
aa(lp4236
I4
aa(lp4237
I4
aa(lp4238
I4
aa(lp4239
I4
aa(lp4240
I4
aa(lp4241
I4
aa(lp4242
I4
aa(lp4243
I4
aa(lp4244
I4
aa(lp4245
I4
aa(lp4246
I4
aa(lp4247
I4
aa(lp4248
I4
aa(lp4249
I4
aa(lp4250
I4
aa(lp4251
I4
aa(lp4252
I4
aa(lp4253
I4
aa(lp4254
I4
aa(lp4255
I4
aa(lp4256
I4
aa(lp4257
I4
aa(lp4258
I4
aa(lp4259
I4
aa(lp4260
I4
aa(lp4261
I4
aa(lp4262
I4
aa(lp4263
I4
aa(lp4264
I4
aa(lp4265
I4
aa(lp4266
I4
aa(lp4267
I4
aa(lp4268
I4
aa(lp4269
I4
aa(lp4270
I4
aa(lp4271
I4
aa(lp4272
I4
aa(lp4273
I4
aa(lp4274
I4
aa(lp4275
I4
aa(lp4276
I4
aa(lp4277
I4
aa(lp4278
I4
aa(lp4279
I4
aa(lp4280
I4
aa(lp4281
I4
aa(lp4282
I4
aa(lp4283
I4
aa(lp4284
I4
aa(lp4285
I4
aa(lp4286
I4
aa(lp4287
I4
aa(lp4288
I4
aa(lp4289
I4
aa(lp4290
I4
aa(lp4291
I4
aa(lp4292
I4
aa(lp4293
I4
aa(lp4294
I4
aa(lp4295
I4
aa(lp4296
I4
aa(lp4297
I4
aa(lp4298
I4
aa(lp4299
I4
aa(lp4300
I4
aa(lp4301
I4
aa(lp4302
I4
aa(lp4303
I4
aa(lp4304
I4
aa(lp4305
I4
aa(lp4306
I4
aa(lp4307
I4
aa(lp4308
I4
aa(lp4309
I4
aa(lp4310
I4
aa(lp4311
I4
aa(lp4312
I4
aa(lp4313
I4
aa(lp4314
I4
aa(lp4315
I4
aa(lp4316
I4
aa(lp4317
I4
aa(lp4318
I4
aa(lp4319
I4
aa(lp4320
I4
aa(lp4321
I4
aa(lp4322
I4
aa(lp4323
I4
aa(lp4324
I4
aa(lp4325
I4
aa(lp4326
I4
aa(lp4327
I4
aa(lp4328
I4
aa(lp4329
I4
aa(lp4330
I4
aa(lp4331
I4
aa(lp4332
I4
aa(lp4333
I4
aa(lp4334
I4
aa(lp4335
I4
aa(lp4336
I4
aa(lp4337
I4
aa(lp4338
I4
aa(lp4339
I4
aa(lp4340
I4
aa(lp4341
I4
aa(lp4342
I4
aa(lp4343
I4
aa(lp4344
I4
aa(lp4345
I4
aa(lp4346
I4
aa(lp4347
I4
aa(lp4348
I4
aa(lp4349
I4
aa(lp4350
I4
aa(lp4351
I4
aa(lp4352
I4
aa(lp4353
I4
aa(lp4354
I4
aa(lp4355
I4
aa(lp4356
I4
aa(lp4357
I4
aa(lp4358
I4
aa(lp4359
I4
aa(lp4360
I4
aa(lp4361
I4
aa(lp4362
I4
aa(lp4363
I4
aa(lp4364
I4
aa(lp4365
I4
aa(lp4366
I4
aa(lp4367
I4
aa(lp4368
I4
aa(lp4369
I4
aa(lp4370
I4
aa(lp4371
I4
aa(lp4372
I4
aa(lp4373
I4
aa(lp4374
I4
aa(lp4375
I4
aa(lp4376
I4
aa(lp4377
I4
aa(lp4378
I4
aa(lp4379
I4
aa(lp4380
I4
aa(lp4381
I4
aa(lp4382
I4
aa(lp4383
I4
aa(lp4384
I4
aa(lp4385
I4
aa(lp4386
I4
aa(lp4387
I4
aa(lp4388
I4
aa(lp4389
I4
aa(lp4390
I4
aa(lp4391
I4
aa(lp4392
I4
aa(lp4393
I4
aa(lp4394
I4
aa(lp4395
I4
aa(lp4396
I4
aa(lp4397
I4
aa(lp4398
I4
aa(lp4399
I4
aa(lp4400
I4
aa(lp4401
I4
aa(lp4402
I4
aa(lp4403
I4
aa(lp4404
I4
aa(lp4405
I4
aa(lp4406
I4
aa(lp4407
I4
aa(lp4408
I4
aa(lp4409
I4
aa(lp4410
I4
aa(lp4411
I4
aa(lp4412
I4
aa(lp4413
I4
aa(lp4414
I4
aa(lp4415
I4
aa(lp4416
I4
aa(lp4417
I4
aa(lp4418
I4
aa(lp4419
I4
aa(lp4420
I4
aa(lp4421
I4
aa(lp4422
I4
aa(lp4423
I4
aa(lp4424
I4
aa(lp4425
I4
aa(lp4426
I4
aa(lp4427
I4
aa(lp4428
I4
aa(lp4429
I4
aa(lp4430
I4
aa(lp4431
I4
aa(lp4432
I4
aa(lp4433
I4
aa(lp4434
I4
aa(lp4435
I4
aa(lp4436
I4
aa(lp4437
I4
aa(lp4438
I4
aa(lp4439
I4
aa(lp4440
I4
aa(lp4441
I4
aa(lp4442
I4
aa(lp4443
I4
aa(lp4444
I4
aa(lp4445
I4
aa(lp4446
I4
aa(lp4447
I4
aa(lp4448
I4
aa(lp4449
I4
aa(lp4450
I4
aa(lp4451
I4
aa(lp4452
I4
aa(lp4453
I4
aa(lp4454
I4
aa(lp4455
I4
aa(lp4456
I4
aa(lp4457
I4
aa(lp4458
I4
aa(lp4459
I4
aa(lp4460
I4
aa(lp4461
I4
aa(lp4462
I4
aa(lp4463
I4
aa(lp4464
I4
aa(lp4465
I4
aa(lp4466
I4
aa(lp4467
I4
aa(lp4468
I4
aa(lp4469
I4
aa(lp4470
I4
aa(lp4471
I4
aa(lp4472
I4
aa(lp4473
I4
aa(lp4474
I4
aa(lp4475
I4
aa(lp4476
I4
aa(lp4477
I4
aa(lp4478
I4
aa(lp4479
I4
aa(lp4480
I4
aa(lp4481
I4
aa(lp4482
I4
aa(lp4483
I4
aa(lp4484
I4
aa(lp4485
I4
aa(lp4486
I4
aa(lp4487
I4
aa(lp4488
I4
aa(lp4489
I4
aa(lp4490
I4
aa(lp4491
I4
aa(lp4492
I4
aa(lp4493
I4
aa(lp4494
I4
aa(lp4495
I4
aa(lp4496
I4
aa(lp4497
I4
aa(lp4498
I4
aa(lp4499
I4
aa(lp4500
I4
aa(lp4501
I4
aa(lp4502
I4
aa(lp4503
I4
aa(lp4504
I4
aa(lp4505
I4
aa(lp4506
I4
aa(lp4507
I4
aa(lp4508
I4
aa(lp4509
I4
aa(lp4510
I4
aa(lp4511
I4
aa(lp4512
I4
aa(lp4513
I4
aa(lp4514
I4
aa(lp4515
I4
aa(lp4516
I4
aa(lp4517
I4
aa(lp4518
I4
aa(lp4519
I4
aa(lp4520
I4
aa(lp4521
I4
aa(lp4522
I4
aa(lp4523
I4
aa(lp4524
I4
aa(lp4525
I4
aa(lp4526
I4
aa(lp4527
I4
aa(lp4528
I4
aa(lp4529
I4
aa(lp4530
I4
aa(lp4531
I4
aa(lp4532
I4
aa(lp4533
I4
aa(lp4534
I4
aa(lp4535
I4
aa(lp4536
I4
aa(lp4537
I4
aa(lp4538
I4
aa(lp4539
I4
aa(lp4540
I4
aa(lp4541
I4
aa(lp4542
I4
aa(lp4543
I4
aa(lp4544
I4
aa(lp4545
I4
aa(lp4546
I4
aa(lp4547
I4
aa(lp4548
I4
aa(lp4549
I4
aa(lp4550
I4
aa(lp4551
I4
aa(lp4552
I4
aa(lp4553
I4
aa(lp4554
I4
aa(lp4555
I4
aa(lp4556
I4
aa(lp4557
I4
aa(lp4558
I4
aa(lp4559
I4
aa(lp4560
I4
aa(lp4561
I4
aa(lp4562
I4
aa(lp4563
I4
aa(lp4564
I4
aa(lp4565
I4
aa(lp4566
I4
aa(lp4567
I4
aa(lp4568
I4
aa(lp4569
I4
aa(lp4570
I4
aa(lp4571
I4
aa(lp4572
I4
aa(lp4573
I4
aa(lp4574
I4
aa(lp4575
I4
aa(lp4576
I4
aa(lp4577
I4
aa(lp4578
I4
aa(lp4579
I4
aa(lp4580
I4
aa(lp4581
I4
aa(lp4582
I4
aa(lp4583
I4
aa(lp4584
I4
aa(lp4585
I4
aa(lp4586
I4
aa(lp4587
I4
aa(lp4588
I4
aa(lp4589
I4
aa(lp4590
I4
aa(lp4591
I4
aa(lp4592
I4
aa(lp4593
I4
aa(lp4594
I4
aa(lp4595
I4
aa(lp4596
I4
aa(lp4597
I4
aa(lp4598
I4
aa(lp4599
I4
aa(lp4600
I4
aa(lp4601
I4
aa(lp4602
I4
aa(lp4603
I4
aa(lp4604
I4
aa(lp4605
I4
aa(lp4606
I4
aa(lp4607
I4
aa(lp4608
I4
aa(lp4609
I4
aa(lp4610
I4
aa(lp4611
I4
aa(lp4612
I4
aa(lp4613
I4
aa(lp4614
I4
aa(lp4615
I4
aa(lp4616
I4
aa(lp4617
I4
aa(lp4618
I4
aa(lp4619
I4
aa(lp4620
I4
aa(lp4621
I4
aa(lp4622
I4
aa(lp4623
I4
aa(lp4624
I4
aa(lp4625
I4
aa(lp4626
I4
aa(lp4627
I4
aa(lp4628
I4
aa(lp4629
I4
aa(lp4630
I4
aa(lp4631
I4
aa(lp4632
I4
aa(lp4633
I4
aa(lp4634
I4
aa(lp4635
I4
aa(lp4636
I4
aa(lp4637
I4
aa(lp4638
I4
aa(lp4639
I4
aa(lp4640
I4
aa(lp4641
I4
aa(lp4642
I4
aa(lp4643
I4
aa(lp4644
I4
aa(lp4645
I4
aa(lp4646
I4
aa(lp4647
I4
aa(lp4648
I4
aa(lp4649
I4
aa(lp4650
I4
aa(lp4651
I4
aa(lp4652
I4
aa(lp4653
I4
aa(lp4654
I4
aa(lp4655
I4
aa(lp4656
I4
aa(lp4657
I4
aa(lp4658
I4
aa(lp4659
I4
aa(lp4660
I4
aa(lp4661
I4
aa(lp4662
I4
aa(lp4663
I4
aa(lp4664
I4
aa(lp4665
I4
aa(lp4666
I4
aa(lp4667
I4
aa(lp4668
I4
aa(lp4669
I4
aa(lp4670
I4
aa(lp4671
I4
aa(lp4672
I4
aa(lp4673
I4
aa(lp4674
I4
aa(lp4675
I4
aa(lp4676
I4
aa(lp4677
I4
aa(lp4678
I4
aa(lp4679
I4
aa(lp4680
I4
aa(lp4681
I4
aa(lp4682
I4
aa(lp4683
I4
aa(lp4684
I4
aa(lp4685
I4
aa(lp4686
I4
aa(lp4687
I4
aa(lp4688
I4
aa(lp4689
I4
aa(lp4690
I4
aa(lp4691
I4
aa(lp4692
I4
aa(lp4693
I4
aa(lp4694
I4
aa(lp4695
I4
aa(lp4696
I4
aa(lp4697
I4
aa(lp4698
I4
aa(lp4699
I4
aa(lp4700
I4
aa(lp4701
I4
aa(lp4702
I4
aa(lp4703
I4
aa(lp4704
I4
aa(lp4705
I4
aa(lp4706
I4
aa(lp4707
I4
aa(lp4708
I4
aa(lp4709
I4
aa(lp4710
I4
aa(lp4711
I4
aa(lp4712
I4
aa(lp4713
I4
aa(lp4714
I4
aa(lp4715
I4
aa(lp4716
I4
aa(lp4717
I4
aa(lp4718
I4
aa(lp4719
I4
aa(lp4720
I4
aa(lp4721
I4
aa(lp4722
I4
aa(lp4723
I4
aa(lp4724
I4
aa(lp4725
I4
aa(lp4726
I4
aa(lp4727
I4
aa(lp4728
I4
aa(lp4729
I4
aa(lp4730
I4
aa(lp4731
I4
aa(lp4732
I4
aa(lp4733
I4
aa(lp4734
I4
aa(lp4735
I4
aa(lp4736
I4
aa(lp4737
I4
aa(lp4738
I4
aa(lp4739
I4
aa(lp4740
I4
aa(lp4741
I4
aa(lp4742
I4
aa(lp4743
I4
aa(lp4744
I4
aa(lp4745
I4
aa(lp4746
I4
aa(lp4747
I4
aa(lp4748
I4
aa(lp4749
I4
aa(lp4750
I4
aa(lp4751
I4
aa(lp4752
I4
aa(lp4753
I4
aa(lp4754
I4
aa(lp4755
I4
aa(lp4756
I4
aa(lp4757
I4
aa(lp4758
I4
aa(lp4759
I4
aa(lp4760
I4
aa(lp4761
I4
aa(lp4762
I4
aa(lp4763
I4
aa(lp4764
I4
aa(lp4765
I4
aa(lp4766
I4
aa(lp4767
I4
aa(lp4768
I4
aa(lp4769
I4
aa(lp4770
I4
aa(lp4771
I4
aa(lp4772
I4
aa(lp4773
I4
aa(lp4774
I4
aa(lp4775
I4
aa(lp4776
I4
aa(lp4777
I4
aa(lp4778
I4
aa(lp4779
I4
aa(lp4780
I4
aa(lp4781
I4
aa(lp4782
I4
aa(lp4783
I4
aa(lp4784
I4
aa(lp4785
I4
aa(lp4786
I4
aa(lp4787
I4
aa(lp4788
I4
aa(lp4789
I4
aa(lp4790
I4
aa(lp4791
I4
aa(lp4792
I4
aa(lp4793
I4
aa(lp4794
I4
aa(lp4795
I4
aa(lp4796
I4
aa(lp4797
I4
aa(lp4798
I4
aa(lp4799
I4
aa(lp4800
I4
aa(lp4801
I4
aa(lp4802
I4
aa(lp4803
I4
aa(lp4804
I4
aa(lp4805
I4
aa(lp4806
I4
aa(lp4807
I4
aa(lp4808
I4
aa(lp4809
I4
aa(lp4810
I4
aa(lp4811
I4
aa(lp4812
I4
aa(lp4813
I4
aa(lp4814
I4
aa(lp4815
I4
aa(lp4816
I4
aa(lp4817
I4
aa(lp4818
I4
aa(lp4819
I4
aa(lp4820
I4
aa(lp4821
I4
aa(lp4822
I4
aa(lp4823
I4
aa(lp4824
I4
aa(lp4825
I4
aa(lp4826
I4
aa(lp4827
I4
aa(lp4828
I4
aa(lp4829
I4
aa(lp4830
I4
aa(lp4831
I4
aa(lp4832
I4
aa(lp4833
I4
aa(lp4834
I5
aa(lp4835
I5
aa(lp4836
I5
aa(lp4837
I5
aa(lp4838
I5
aa(lp4839
I5
aa(lp4840
I5
aa(lp4841
I5
aa(lp4842
I5
aa(lp4843
I5
aa(lp4844
I5
aa(lp4845
I5
aa(lp4846
I5
aa(lp4847
I5
aa(lp4848
I5
aa(lp4849
I5
aa(lp4850
I5
aa(lp4851
I5
aa(lp4852
I5
aa(lp4853
I5
aa(lp4854
I5
aa(lp4855
I5
aa(lp4856
I5
aa(lp4857
I5
aa(lp4858
I5
aa(lp4859
I5
aa(lp4860
I5
aa(lp4861
I5
aa(lp4862
I5
aa(lp4863
I5
aa(lp4864
I5
aa(lp4865
I5
aa(lp4866
I5
aa(lp4867
I5
aa(lp4868
I5
aa(lp4869
I5
aa(lp4870
I5
aa(lp4871
I5
aa(lp4872
I5
aa(lp4873
I5
aa(lp4874
I5
aa(lp4875
I5
aa(lp4876
I5
aa(lp4877
I5
aa(lp4878
I5
aa(lp4879
I5
aa(lp4880
I5
aa(lp4881
I5
aa(lp4882
I5
aa(lp4883
I5
aa(lp4884
I5
aa(lp4885
I5
aa(lp4886
I5
aa(lp4887
I5
aa(lp4888
I5
aa(lp4889
I5
aa(lp4890
I5
aa(lp4891
I5
aa(lp4892
I5
aa(lp4893
I5
aa(lp4894
I5
aa(lp4895
I5
aa(lp4896
I5
aa(lp4897
I5
aa(lp4898
I5
aa(lp4899
I5
aa(lp4900
I5
aa(lp4901
I5
aa(lp4902
I5
aa(lp4903
I5
aa(lp4904
I5
aa(lp4905
I5
aa(lp4906
I5
aa(lp4907
I5
aa(lp4908
I5
aa(lp4909
I5
aa(lp4910
I5
aa(lp4911
I5
aa(lp4912
I5
aa(lp4913
I5
aa(lp4914
I5
aa(lp4915
I5
aa(lp4916
I5
aa(lp4917
I5
aa(lp4918
I5
aa(lp4919
I5
aa(lp4920
I5
aa(lp4921
I5
aa(lp4922
I5
aa(lp4923
I5
aa(lp4924
I5
aa(lp4925
I5
aa(lp4926
I5
aa(lp4927
I5
aa(lp4928
I5
aa(lp4929
I5
aa(lp4930
I5
aa(lp4931
I5
aa(lp4932
I5
aa(lp4933
I5
aa(lp4934
I5
aa(lp4935
I5
aa(lp4936
I5
aa(lp4937
I5
aa(lp4938
I5
aa(lp4939
I5
aa(lp4940
I5
aa(lp4941
I5
aa(lp4942
I5
aa(lp4943
I5
aa(lp4944
I5
aa(lp4945
I5
aa(lp4946
I5
aa(lp4947
I5
aa(lp4948
I5
aa(lp4949
I5
aa(lp4950
I5
aa(lp4951
I5
aa(lp4952
I5
aa(lp4953
I5
aa(lp4954
I5
aa(lp4955
I5
aa(lp4956
I5
aa(lp4957
I5
aa(lp4958
I5
aa(lp4959
I5
aa(lp4960
I5
aa(lp4961
I5
aa(lp4962
I5
aa(lp4963
I5
aa(lp4964
I5
aa(lp4965
I5
aa(lp4966
I5
aa(lp4967
I5
aa(lp4968
I5
aa(lp4969
I5
aa(lp4970
I5
aa(lp4971
I5
aa(lp4972
I5
aa(lp4973
I5
aa(lp4974
I5
aa(lp4975
I5
aa(lp4976
I5
aa(lp4977
I5
aa(lp4978
I5
aa(lp4979
I5
aa(lp4980
I5
aa(lp4981
I5
aa(lp4982
I5
aa(lp4983
I5
aa(lp4984
I5
aa(lp4985
I5
aa(lp4986
I5
aa(lp4987
I5
aa(lp4988
I5
aa(lp4989
I5
aa(lp4990
I5
aa(lp4991
I5
aa(lp4992
I5
aa(lp4993
I5
aa(lp4994
I5
aa(lp4995
I5
aa(lp4996
I5
aa(lp4997
I5
aa(lp4998
I5
aa(lp4999
I5
aa(lp5000
I5
aa(lp5001
I5
aa(lp5002
I5
aa(lp5003
I5
aa(lp5004
I5
aa(lp5005
I5
aa(lp5006
I5
aa(lp5007
I5
aa(lp5008
I5
aa(lp5009
I5
aa(lp5010
I5
aa(lp5011
I5
aa(lp5012
I5
aa(lp5013
I5
aa(lp5014
I5
aa(lp5015
I5
aa(lp5016
I5
aa(lp5017
I5
aa(lp5018
I5
aa(lp5019
I5
aa(lp5020
I5
aa(lp5021
I5
aa(lp5022
I5
aa(lp5023
I5
aa(lp5024
I5
aa(lp5025
I5
aa(lp5026
I5
aa(lp5027
I5
aa(lp5028
I5
aa(lp5029
I5
aa(lp5030
I5
aa(lp5031
I5
aa(lp5032
I5
aa(lp5033
I5
aa(lp5034
I5
aa(lp5035
I5
aa(lp5036
I5
aa(lp5037
I5
aa(lp5038
I5
aa(lp5039
I5
aa(lp5040
I5
aa(lp5041
I5
aa(lp5042
I5
aa(lp5043
I5
aa(lp5044
I5
aa(lp5045
I5
aa(lp5046
I5
aa(lp5047
I5
aa(lp5048
I5
aa(lp5049
I5
aa(lp5050
I5
aa(lp5051
I5
aa(lp5052
I5
aa(lp5053
I5
aa(lp5054
I5
aa(lp5055
I5
aa(lp5056
I5
aa(lp5057
I5
aa(lp5058
I5
aa(lp5059
I5
aa(lp5060
I5
aa(lp5061
I5
aa(lp5062
I5
aa(lp5063
I5
aa(lp5064
I5
aa(lp5065
I5
aa(lp5066
I5
aa(lp5067
I5
aa(lp5068
I5
aa(lp5069
I5
aa(lp5070
I5
aa(lp5071
I5
aa(lp5072
I5
aa(lp5073
I5
aa(lp5074
I5
aa(lp5075
I5
aa(lp5076
I5
aa(lp5077
I5
aa(lp5078
I5
aa(lp5079
I5
aa(lp5080
I5
aa(lp5081
I5
aa(lp5082
I5
aa(lp5083
I5
aa(lp5084
I5
aa(lp5085
I5
aa(lp5086
I5
aa(lp5087
I5
aa(lp5088
I5
aa(lp5089
I5
aa(lp5090
I5
aa(lp5091
I5
aa(lp5092
I5
aa(lp5093
I5
aa(lp5094
I5
aa(lp5095
I5
aa(lp5096
I5
aa(lp5097
I5
aa(lp5098
I5
aa(lp5099
I5
aa(lp5100
I5
aa(lp5101
I5
aa(lp5102
I5
aa(lp5103
I5
aa(lp5104
I5
aa(lp5105
I5
aa(lp5106
I5
aa(lp5107
I5
aa(lp5108
I5
aa(lp5109
I5
aa(lp5110
I5
aa(lp5111
I5
aa(lp5112
I5
aa(lp5113
I5
aa(lp5114
I5
aa(lp5115
I5
aa(lp5116
I5
aa(lp5117
I5
aa(lp5118
I5
aa(lp5119
I5
aa(lp5120
I5
aa(lp5121
I5
aa(lp5122
I5
aa(lp5123
I5
aa(lp5124
I5
aa(lp5125
I5
aa(lp5126
I5
aa(lp5127
I5
aa(lp5128
I5
aa(lp5129
I5
aa(lp5130
I5
aa(lp5131
I5
aa(lp5132
I5
aa(lp5133
I5
aa(lp5134
I5
aa(lp5135
I5
aa(lp5136
I5
aa(lp5137
I5
aa(lp5138
I5
aa(lp5139
I5
aa(lp5140
I5
aa(lp5141
I5
aa(lp5142
I5
aa(lp5143
I5
aa(lp5144
I5
aa(lp5145
I5
aa(lp5146
I5
aa(lp5147
I5
aa(lp5148
I5
aa(lp5149
I5
aa(lp5150
I5
aa(lp5151
I5
aa(lp5152
I5
aa(lp5153
I5
aa(lp5154
I5
aa(lp5155
I5
aa(lp5156
I5
aa(lp5157
I5
aa(lp5158
I5
aa(lp5159
I5
aa(lp5160
I5
aa(lp5161
I5
aa(lp5162
I5
aa(lp5163
I5
aa(lp5164
I5
aa(lp5165
I5
aa(lp5166
I5
aa(lp5167
I5
aa(lp5168
I5
aa(lp5169
I5
aa(lp5170
I5
aa(lp5171
I5
aa(lp5172
I5
aa(lp5173
I5
aa(lp5174
I5
aa(lp5175
I5
aa(lp5176
I5
aa(lp5177
I5
aa(lp5178
I5
aa(lp5179
I5
aa(lp5180
I5
aa(lp5181
I5
aa(lp5182
I5
aa(lp5183
I5
aa(lp5184
I5
aa(lp5185
I5
aa(lp5186
I5
aa(lp5187
I5
aa(lp5188
I5
aa(lp5189
I5
aa(lp5190
I5
aa(lp5191
I5
aa(lp5192
I5
aa(lp5193
I5
aa(lp5194
I5
aa(lp5195
I5
aa(lp5196
I5
aa(lp5197
I5
aa(lp5198
I5
aa(lp5199
I5
aa(lp5200
I5
aa(lp5201
I5
aa(lp5202
I5
aa(lp5203
I5
aa(lp5204
I5
aa(lp5205
I5
aa(lp5206
I5
aa(lp5207
I5
aa(lp5208
I5
aa(lp5209
I5
aa(lp5210
I5
aa(lp5211
I5
aa(lp5212
I5
aa(lp5213
I5
aa(lp5214
I5
aa(lp5215
I5
aa(lp5216
I5
aa(lp5217
I5
aa(lp5218
I5
aa(lp5219
I5
aa(lp5220
I5
aa(lp5221
I5
aa(lp5222
I5
aa(lp5223
I5
aa(lp5224
I5
aa(lp5225
I5
aa(lp5226
I5
aa(lp5227
I5
aa(lp5228
I5
aa(lp5229
I5
aa(lp5230
I5
aa(lp5231
I5
aa(lp5232
I5
aa(lp5233
I5
aa(lp5234
I5
aa(lp5235
I5
aa(lp5236
I5
aa(lp5237
I5
aa(lp5238
I5
aa(lp5239
I5
aa(lp5240
I5
aa(lp5241
I5
aa(lp5242
I5
aa(lp5243
I5
aa(lp5244
I5
aa(lp5245
I5
aa(lp5246
I5
aa(lp5247
I5
aa(lp5248
I5
aa(lp5249
I5
aa(lp5250
I5
aa(lp5251
I5
aa(lp5252
I5
aa(lp5253
I5
aa(lp5254
I5
aa(lp5255
I5
aa(lp5256
I5
aa(lp5257
I5
aa(lp5258
I5
aa(lp5259
I5
aa(lp5260
I5
aa(lp5261
I5
aa(lp5262
I5
aa(lp5263
I5
aa(lp5264
I5
aa(lp5265
I5
aa(lp5266
I5
aa(lp5267
I5
aa(lp5268
I5
aa(lp5269
I5
aa(lp5270
I5
aa(lp5271
I5
aa(lp5272
I5
aa(lp5273
I5
aa(lp5274
I5
aa(lp5275
I5
aa(lp5276
I5
aa(lp5277
I5
aa(lp5278
I5
aa(lp5279
I5
aa(lp5280
I5
aa(lp5281
I5
aa(lp5282
I5
aa(lp5283
I5
aa(lp5284
I5
aa(lp5285
I5
aa(lp5286
I5
aa(lp5287
I5
aa(lp5288
I5
aa(lp5289
I5
aa(lp5290
I5
aa(lp5291
I5
aa(lp5292
I5
aa(lp5293
I5
aa(lp5294
I5
aa(lp5295
I5
aa(lp5296
I5
aa(lp5297
I5
aa(lp5298
I5
aa(lp5299
I5
aa(lp5300
I5
aa(lp5301
I5
aa(lp5302
I5
aa(lp5303
I5
aa(lp5304
I5
aa(lp5305
I5
aa(lp5306
I5
aa(lp5307
I5
aa(lp5308
I5
aa(lp5309
I5
aa(lp5310
I5
aa(lp5311
I5
aa(lp5312
I5
aa(lp5313
I5
aa(lp5314
I5
aa(lp5315
I5
aa(lp5316
I5
aa(lp5317
I5
aa(lp5318
I5
aa(lp5319
I5
aa(lp5320
I5
aa(lp5321
I5
aa(lp5322
I5
aa(lp5323
I5
aa(lp5324
I5
aa(lp5325
I5
aa(lp5326
I5
aa(lp5327
I5
aa(lp5328
I5
aa(lp5329
I5
aa(lp5330
I5
aa(lp5331
I5
aa(lp5332
I5
aa(lp5333
I5
aa(lp5334
I5
aa(lp5335
I5
aa(lp5336
I5
aa(lp5337
I5
aa(lp5338
I5
aa(lp5339
I5
aa(lp5340
I5
aa(lp5341
I5
aa(lp5342
I5
aa(lp5343
I5
aa(lp5344
I5
aa(lp5345
I5
aa(lp5346
I5
aa(lp5347
I5
aa(lp5348
I5
aa(lp5349
I5
aa(lp5350
I5
aa(lp5351
I5
aa(lp5352
I5
aa(lp5353
I5
aa(lp5354
I5
aa(lp5355
I5
aa(lp5356
I5
aa(lp5357
I5
aa(lp5358
I5
aa(lp5359
I5
aa(lp5360
I5
aa(lp5361
I5
aa(lp5362
I5
aa(lp5363
I5
aa(lp5364
I5
aa(lp5365
I5
aa(lp5366
I5
aa(lp5367
I5
aa(lp5368
I5
aa(lp5369
I5
aa(lp5370
I5
aa(lp5371
I5
aa(lp5372
I5
aa(lp5373
I5
aa(lp5374
I5
aa(lp5375
I5
aa(lp5376
I5
aa(lp5377
I5
aa(lp5378
I5
aa(lp5379
I5
aa(lp5380
I5
aa(lp5381
I5
aa(lp5382
I5
aa(lp5383
I5
aa(lp5384
I5
aa(lp5385
I5
aa(lp5386
I5
aa(lp5387
I5
aa(lp5388
I5
aa(lp5389
I5
aa(lp5390
I5
aa(lp5391
I5
aa(lp5392
I5
aa(lp5393
I5
aa(lp5394
I5
aa(lp5395
I5
aa(lp5396
I5
aa(lp5397
I5
aa(lp5398
I5
aa(lp5399
I5
aa(lp5400
I5
aa(lp5401
I5
aa(lp5402
I5
aa(lp5403
I5
aa(lp5404
I5
aa(lp5405
I5
aa(lp5406
I5
aa(lp5407
I5
aa(lp5408
I5
aa(lp5409
I5
aa(lp5410
I5
aa(lp5411
I5
aa(lp5412
I5
aa(lp5413
I5
aa(lp5414
I5
aa(lp5415
I5
aa(lp5416
I5
aa(lp5417
I5
aa(lp5418
I5
aa(lp5419
I5
aa(lp5420
I5
aa(lp5421
I5
aa(lp5422
I5
aa(lp5423
I5
aa(lp5424
I5
aa(lp5425
I5
aa(lp5426
I5
aa(lp5427
I5
aa(lp5428
I5
aa(lp5429
I5
aa(lp5430
I5
aa(lp5431
I5
aa(lp5432
I5
aa(lp5433
I5
aa(lp5434
I5
aa(lp5435
I5
aa(lp5436
I5
aa(lp5437
I5
aa(lp5438
I5
aa(lp5439
I5
aa(lp5440
I5
aa(lp5441
I5
aa(lp5442
I5
aa(lp5443
I5
aa(lp5444
I5
aa(lp5445
I5
aa(lp5446
I5
aa(lp5447
I5
aa(lp5448
I5
aa(lp5449
I5
aa(lp5450
I5
aa(lp5451
I5
aa(lp5452
I5
aa(lp5453
I5
aa(lp5454
I5
aa(lp5455
I5
aa(lp5456
I5
aa(lp5457
I5
aa(lp5458
I5
aa(lp5459
I5
aa(lp5460
I5
aa(lp5461
I5
aa(lp5462
I5
aa(lp5463
I5
aa(lp5464
I5
aa(lp5465
I5
aa(lp5466
I5
aa(lp5467
I5
aa(lp5468
I5
aa(lp5469
I5
aa(lp5470
I5
aa(lp5471
I5
aa(lp5472
I5
aa(lp5473
I5
aa(lp5474
I5
aa(lp5475
I5
aa(lp5476
I5
aa(lp5477
I5
aa(lp5478
I5
aa(lp5479
I5
aa(lp5480
I5
aa(lp5481
I5
aa(lp5482
I5
aa(lp5483
I5
aa(lp5484
I5
aa(lp5485
I5
aa(lp5486
I5
aa(lp5487
I5
aa(lp5488
I5
aa(lp5489
I5
aa(lp5490
I5
aa(lp5491
I5
aa(lp5492
I5
aa(lp5493
I5
aa(lp5494
I5
aa(lp5495
I5
aa(lp5496
I5
aa(lp5497
I5
aa(lp5498
I5
aa(lp5499
I5
aa(lp5500
I5
aa(lp5501
I5
aa(lp5502
I5
aa(lp5503
I5
aa(lp5504
I5
aa(lp5505
I5
aa(lp5506
I5
aa(lp5507
I5
aa(lp5508
I5
aa(lp5509
I5
aa(lp5510
I5
aa(lp5511
I5
aa(lp5512
I5
aa(lp5513
I5
aa(lp5514
I5
aa(lp5515
I5
aa(lp5516
I5
aa(lp5517
I5
aa(lp5518
I5
aa(lp5519
I5
aa(lp5520
I5
aa(lp5521
I5
aa(lp5522
I5
aa(lp5523
I5
aa(lp5524
I5
aa(lp5525
I5
aa(lp5526
I5
aa(lp5527
I5
aa(lp5528
I5
aa(lp5529
I5
aa(lp5530
I5
aa(lp5531
I5
aa(lp5532
I5
aa(lp5533
I5
aa(lp5534
I5
aa(lp5535
I5
aa(lp5536
I5
aa(lp5537
I5
aa(lp5538
I5
aa(lp5539
I5
aa(lp5540
I5
aa(lp5541
I5
aa(lp5542
I5
aa(lp5543
I5
aa(lp5544
I5
aa(lp5545
I5
aa(lp5546
I5
aa(lp5547
I5
aa(lp5548
I5
aa(lp5549
I5
aa(lp5550
I5
aa(lp5551
I5
aa(lp5552
I5
aa(lp5553
I5
aa(lp5554
I5
aa(lp5555
I5
aa(lp5556
I5
aa(lp5557
I5
aa(lp5558
I5
aa(lp5559
I5
aa(lp5560
I5
aa(lp5561
I5
aa(lp5562
I5
aa(lp5563
I5
aa(lp5564
I5
aa(lp5565
I5
aa(lp5566
I5
aa(lp5567
I5
aa(lp5568
I5
aa(lp5569
I5
aa(lp5570
I5
aa(lp5571
I5
aa(lp5572
I5
aa(lp5573
I5
aa(lp5574
I5
aa(lp5575
I5
aa(lp5576
I5
aa(lp5577
I5
aa(lp5578
I5
aa(lp5579
I5
aa(lp5580
I5
aa(lp5581
I5
aa(lp5582
I5
aa(lp5583
I5
aa(lp5584
I5
aa(lp5585
I5
aa(lp5586
I5
aa(lp5587
I5
aa(lp5588
I5
aa(lp5589
I5
aa(lp5590
I5
aa(lp5591
I5
aa(lp5592
I5
aa(lp5593
I5
aa(lp5594
I5
aa(lp5595
I5
aa(lp5596
I5
aa(lp5597
I5
aa(lp5598
I5
aa(lp5599
I5
aa(lp5600
I5
aa(lp5601
I5
aa(lp5602
I5
aa(lp5603
I5
aa(lp5604
I5
aa(lp5605
I5
aa(lp5606
I5
aa(lp5607
I5
aa(lp5608
I5
aa(lp5609
I5
aa(lp5610
I5
aa(lp5611
I5
aa(lp5612
I5
aa(lp5613
I5
aa(lp5614
I5
aa(lp5615
I5
aa(lp5616
I5
aa(lp5617
I5
aa(lp5618
I5
aa(lp5619
I5
aa(lp5620
I5
aa(lp5621
I5
aa(lp5622
I5
aa(lp5623
I5
aa(lp5624
I5
aa(lp5625
I5
aa(lp5626
I5
aa(lp5627
I5
aa(lp5628
I5
aa(lp5629
I5
aa(lp5630
I5
aa(lp5631
I5
aa(lp5632
I5
aa(lp5633
I5
aa(lp5634
I5
aa(lp5635
I5
aa(lp5636
I5
aa(lp5637
I5
aa(lp5638
I5
aa(lp5639
I5
aa(lp5640
I5
aa(lp5641
I5
aa(lp5642
I5
aa(lp5643
I5
aa(lp5644
I5
aa(lp5645
I5
aa(lp5646
I5
aa(lp5647
I5
aa(lp5648
I5
aa(lp5649
I5
aa(lp5650
I5
aa(lp5651
I5
aa(lp5652
I5
aa(lp5653
I5
aa(lp5654
I5
aa(lp5655
I5
aa(lp5656
I5
aa(lp5657
I5
aa(lp5658
I5
aa(lp5659
I5
aa(lp5660
I5
aa(lp5661
I5
aa(lp5662
I5
aa(lp5663
I5
aa(lp5664
I5
aa(lp5665
I5
aa(lp5666
I5
aa(lp5667
I5
aa(lp5668
I5
aa(lp5669
I5
aa(lp5670
I5
aa(lp5671
I5
aa(lp5672
I5
aa(lp5673
I5
aa(lp5674
I5
aa(lp5675
I5
aa(lp5676
I5
aa(lp5677
I5
aa(lp5678
I5
aa(lp5679
I5
aa(lp5680
I5
aa(lp5681
I5
aa(lp5682
I5
aa(lp5683
I5
aa(lp5684
I5
aa(lp5685
I5
aa(lp5686
I5
aa(lp5687
I5
aa(lp5688
I5
aa(lp5689
I5
aa(lp5690
I5
aa(lp5691
I5
aa(lp5692
I5
aa(lp5693
I5
aa(lp5694
I5
aa(lp5695
I5
aa(lp5696
I5
aa(lp5697
I5
aa(lp5698
I5
aa(lp5699
I5
aa(lp5700
I5
aa(lp5701
I5
aa(lp5702
I5
aa(lp5703
I5
aa(lp5704
I5
aa(lp5705
I5
aa(lp5706
I5
aa(lp5707
I5
aa(lp5708
I5
aa(lp5709
I5
aa(lp5710
I5
aa(lp5711
I5
aa(lp5712
I5
aa(lp5713
I5
aa(lp5714
I5
aa(lp5715
I5
aa(lp5716
I5
aa(lp5717
I5
aa(lp5718
I5
aa(lp5719
I5
aa(lp5720
I5
aa(lp5721
I5
aa(lp5722
I5
aa(lp5723
I5
aa(lp5724
I5
aa(lp5725
I5
aa(lp5726
I5
aa(lp5727
I5
aa(lp5728
I5
aa(lp5729
I5
aa(lp5730
I5
aa(lp5731
I5
aa(lp5732
I5
aa(lp5733
I5
aa(lp5734
I5
aa(lp5735
I5
aa(lp5736
I5
aa(lp5737
I5
aa(lp5738
I5
aa(lp5739
I5
aa(lp5740
I5
aa(lp5741
I5
aa(lp5742
I5
aa(lp5743
I5
aa(lp5744
I5
aa(lp5745
I5
aa(lp5746
I5
aa(lp5747
I5
aa(lp5748
I5
aa(lp5749
I5
aa(lp5750
I5
aa(lp5751
I5
aa(lp5752
I5
aa(lp5753
I5
aa(lp5754
I5
aa(lp5755
I5
aa(lp5756
I5
aa(lp5757
I5
aa(lp5758
I5
aa(lp5759
I5
aa(lp5760
I5
aa(lp5761
I5
aa(lp5762
I5
aa(lp5763
I5
aa(lp5764
I5
aa(lp5765
I5
aa(lp5766
I5
aa(lp5767
I5
aa(lp5768
I5
aa(lp5769
I5
aa(lp5770
I5
aa(lp5771
I5
aa(lp5772
I5
aa(lp5773
I5
aa(lp5774
I5
aa(lp5775
I5
aa(lp5776
I5
aa(lp5777
I5
aa(lp5778
I5
aa(lp5779
I5
aa(lp5780
I5
aa(lp5781
I5
aa(lp5782
I5
aa(lp5783
I5
aa(lp5784
I5
aa(lp5785
I5
aa(lp5786
I5
aa(lp5787
I5
aa(lp5788
I5
aa(lp5789
I5
aa(lp5790
I5
aa(lp5791
I5
aa(lp5792
I5
aa(lp5793
I5
aa(lp5794
I5
aa(lp5795
I5
aa(lp5796
I5
aa(lp5797
I5
aa(lp5798
I5
aa(lp5799
I5
aa(lp5800
I5
aa(lp5801
I5
aa(lp5802
I5
aa(lp5803
I5
aa(lp5804
I5
aa(lp5805
I5
aa(lp5806
I5
aa(lp5807
I5
aa(lp5808
I5
aa(lp5809
I5
aa(lp5810
I5
aa(lp5811
I5
aa(lp5812
I5
aa(lp5813
I5
aa(lp5814
I5
aa(lp5815
I5
aa(lp5816
I5
aa(lp5817
I5
aa(lp5818
I5
aa(lp5819
I5
aa(lp5820
I5
aa(lp5821
I5
aa(lp5822
I5
aa(lp5823
I5
aa(lp5824
I5
aa(lp5825
I5
aa(lp5826
I5
aa(lp5827
I5
aa(lp5828
I5
aa(lp5829
I5
aa(lp5830
I5
aa(lp5831
I5
aa(lp5832
I5
aa(lp5833
I5
aa(lp5834
I5
aa(lp5835
I5
aa(lp5836
I5
aa(lp5837
I5
aa(lp5838
I5
aa(lp5839
I5
aa(lp5840
I5
aa(lp5841
I5
aa(lp5842
I5
aa(lp5843
I5
aa(lp5844
I5
aa(lp5845
I5
aa(lp5846
I5
aa(lp5847
I5
aa(lp5848
I5
aa(lp5849
I5
aa(lp5850
I5
aa(lp5851
I5
aa(lp5852
I5
aa(lp5853
I5
aa(lp5854
I5
aa(lp5855
I5
aa(lp5856
I5
aa(lp5857
I5
aa(lp5858
I5
aa(lp5859
I5
aa(lp5860
I5
aa(lp5861
I5
aa(lp5862
I5
aa(lp5863
I5
aa(lp5864
I5
aa(lp5865
I5
aa(lp5866
I5
aa(lp5867
I5
aa(lp5868
I5
aa(lp5869
I5
aa(lp5870
I5
aa(lp5871
I5
aa(lp5872
I5
aa(lp5873
I5
aa(lp5874
I5
aa(lp5875
I5
aa(lp5876
I5
aa(lp5877
I5
aa(lp5878
I5
aa(lp5879
I5
aa(lp5880
I5
aa(lp5881
I5
aa(lp5882
I5
aa(lp5883
I5
aa(lp5884
I5
aa(lp5885
I5
aa(lp5886
I5
aa(lp5887
I5
aa(lp5888
I5
aa(lp5889
I5
aa(lp5890
I5
aa(lp5891
I5
aa(lp5892
I5
aa(lp5893
I5
aa(lp5894
I5
aa(lp5895
I5
aa(lp5896
I5
aa(lp5897
I5
aa(lp5898
I5
aa(lp5899
I5
aa(lp5900
I5
aa(lp5901
I5
aa(lp5902
I5
aa(lp5903
I5
aa(lp5904
I5
aa(lp5905
I5
aa(lp5906
I5
aa(lp5907
I5
aa(lp5908
I5
aa(lp5909
I5
aa(lp5910
I5
aa(lp5911
I5
aa(lp5912
I5
aa(lp5913
I5
aa(lp5914
I5
aa(lp5915
I5
aa(lp5916
I5
aa(lp5917
I5
aa(lp5918
I5
aa(lp5919
I5
aa(lp5920
I5
aa(lp5921
I5
aa(lp5922
I5
aa(lp5923
I5
aa(lp5924
I5
aa(lp5925
I5
aa(lp5926
I5
aa(lp5927
I5
aa(lp5928
I5
aa(lp5929
I5
aa(lp5930
I5
aa(lp5931
I5
aa(lp5932
I5
aa(lp5933
I5
aa(lp5934
I5
aa(lp5935
I5
aa(lp5936
I5
aa(lp5937
I5
aa(lp5938
I5
aa(lp5939
I5
aa(lp5940
I5
aa(lp5941
I5
aa(lp5942
I5
aa(lp5943
I5
aa(lp5944
I5
aa(lp5945
I5
aa(lp5946
I5
aa(lp5947
I5
aa(lp5948
I5
aa(lp5949
I5
aa(lp5950
I5
aa(lp5951
I5
aa(lp5952
I5
aa(lp5953
I5
aa(lp5954
I5
aa(lp5955
I5
aa(lp5956
I5
aa(lp5957
I5
aa(lp5958
I5
aa(lp5959
I5
aa(lp5960
I5
aa(lp5961
I5
aa(lp5962
I5
aa(lp5963
I5
aa(lp5964
I5
aa(lp5965
I5
aa(lp5966
I5
aa(lp5967
I5
aa(lp5968
I5
aa(lp5969
I5
aa(lp5970
I5
aa(lp5971
I5
aa(lp5972
I5
aa(lp5973
I5
aa(lp5974
I5
aa(lp5975
I5
aa(lp5976
I5
aa(lp5977
I5
aa(lp5978
I5
aa(lp5979
I5
aa(lp5980
I5
aa(lp5981
I5
aa(lp5982
I5
aa(lp5983
I5
aa(lp5984
I5
aa(lp5985
I5
aa(lp5986
I5
aa(lp5987
I5
aa(lp5988
I5
aa(lp5989
I5
aa(lp5990
I5
aa(lp5991
I5
aa(lp5992
I5
aa(lp5993
I5
aa(lp5994
I5
aa(lp5995
I5
aa(lp5996
I5
aa(lp5997
I5
aa(lp5998
I5
aa(lp5999
I5
aa(lp6000
I5
aa(lp6001
I5
aa(lp6002
I5
aa(lp6003
I5
aa(lp6004
I5
aa(lp6005
I5
aa(lp6006
I5
aa(lp6007
I5
aa(lp6008
I5
aa(lp6009
I5
aa(lp6010
I5
aa(lp6011
I5
aa(lp6012
I5
aa(lp6013
I5
aa(lp6014
I5
aa(lp6015
I5
aa(lp6016
I5
aa(lp6017
I5
aa(lp6018
I5
aa(lp6019
I5
aa(lp6020
I5
aa(lp6021
I5
aa(lp6022
I5
aa(lp6023
I5
aa(lp6024
I5
aa(lp6025
I5
aa(lp6026
I5
aa(lp6027
I5
aa(lp6028
I5
aa(lp6029
I5
aa(lp6030
I5
aa(lp6031
I5
aa(lp6032
I5
aa(lp6033
I5
aa(lp6034
I5
aa(lp6035
I5
aa(lp6036
I5
aa(lp6037
I5
aa(lp6038
I5
aa(lp6039
I5
aa(lp6040
I5
aa(lp6041
I5
aa(lp6042
I5
aa(lp6043
I5
aa(lp6044
I5
aa(lp6045
I5
aa(lp6046
I5
aa(lp6047
I5
aa(lp6048
I5
aa(lp6049
I5
aa(lp6050
I5
aa(lp6051
I5
aa(lp6052
I5
aa(lp6053
I5
aa(lp6054
I5
aa(lp6055
I5
aa(lp6056
I5
aa(lp6057
I5
aa(lp6058
I5
aa(lp6059
I5
aa(lp6060
I5
aa(lp6061
I5
aa(lp6062
I5
aa(lp6063
I5
aa(lp6064
I5
aa(lp6065
I5
aa(lp6066
I5
aa(lp6067
I5
aa(lp6068
I5
aa(lp6069
I5
aa(lp6070
I5
aa(lp6071
I5
aa(lp6072
I5
aa(lp6073
I5
aa(lp6074
I5
aa(lp6075
I5
aa(lp6076
I5
aa(lp6077
I5
aa(lp6078
I5
aa(lp6079
I5
aa(lp6080
I5
aa(lp6081
I5
aa(lp6082
I5
aa(lp6083
I5
aa(lp6084
I5
aa(lp6085
I5
aa(lp6086
I5
aa(lp6087
I5
aa(lp6088
I5
aa(lp6089
I5
aa(lp6090
I5
aa(lp6091
I5
aa(lp6092
I5
aa(lp6093
I5
aa(lp6094
I5
aa(lp6095
I5
aa(lp6096
I5
aa(lp6097
I5
aa(lp6098
I5
aa(lp6099
I5
aa(lp6100
I5
aa(lp6101
I5
aa(lp6102
I5
aa(lp6103
I5
aa(lp6104
I5
aa(lp6105
I5
aa(lp6106
I5
aa(lp6107
I5
aa(lp6108
I5
aa(lp6109
I5
aa(lp6110
I5
aa(lp6111
I5
aa(lp6112
I5
aa(lp6113
I5
aa(lp6114
I5
aa(lp6115
I5
aa(lp6116
I5
aa(lp6117
I5
aa(lp6118
I5
aa(lp6119
I5
aa(lp6120
I5
aa(lp6121
I5
aa(lp6122
I5
aa(lp6123
I5
aa(lp6124
I5
aa(lp6125
I5
aa(lp6126
I5
aa(lp6127
I5
aa(lp6128
I5
aa(lp6129
I5
aa(lp6130
I5
aa(lp6131
I5
aa(lp6132
I5
aa(lp6133
I5
aa(lp6134
I5
aa(lp6135
I5
aa(lp6136
I5
aa(lp6137
I5
aa(lp6138
I5
aa(lp6139
I5
aa(lp6140
I5
aa(lp6141
I5
aa(lp6142
I5
aa(lp6143
I5
aa(lp6144
I5
aa(lp6145
I5
aa(lp6146
I5
aa(lp6147
I5
aa(lp6148
I5
aa(lp6149
I5
aa(lp6150
I5
aa(lp6151
I5
aa(lp6152
I5
aa(lp6153
I5
aa(lp6154
I5
aa(lp6155
I5
aa(lp6156
I5
aa(lp6157
I5
aa(lp6158
I5
aa(lp6159
I5
aa(lp6160
I5
aa(lp6161
I5
aa(lp6162
I5
aa(lp6163
I5
aa(lp6164
I5
aa(lp6165
I5
aa(lp6166
I5
aa(lp6167
I5
aa(lp6168
I5
aa(lp6169
I5
aa(lp6170
I5
aa(lp6171
I5
aa(lp6172
I5
aa(lp6173
I5
aa(lp6174
I5
aa(lp6175
I5
aa(lp6176
I5
aa(lp6177
I5
aa(lp6178
I5
aa(lp6179
I5
aa(lp6180
I5
aa(lp6181
I5
aa(lp6182
I5
aa(lp6183
I5
aa(lp6184
I5
aa(lp6185
I5
aa(lp6186
I5
aa(lp6187
I5
aa(lp6188
I5
aa(lp6189
I5
aa(lp6190
I5
aa(lp6191
I5
aa(lp6192
I5
aa(lp6193
I5
aa(lp6194
I5
aa(lp6195
I5
aa(lp6196
I5
aa(lp6197
I5
aa(lp6198
I5
aa(lp6199
I5
aa(lp6200
I5
aa(lp6201
I5
aa(lp6202
I5
aa(lp6203
I5
aa(lp6204
I5
aa(lp6205
I5
aa(lp6206
I5
aa(lp6207
I5
aa(lp6208
I5
aa(lp6209
I5
aa(lp6210
I5
aa(lp6211
I5
aa(lp6212
I5
aa(lp6213
I5
aa(lp6214
I5
aa(lp6215
I5
aa(lp6216
I5
aa(lp6217
I5
aa(lp6218
I5
aa(lp6219
I5
aa(lp6220
I5
aa(lp6221
I5
aa(lp6222
I5
aa(lp6223
I5
aa(lp6224
I5
aa(lp6225
I5
aa(lp6226
I5
aa(lp6227
I5
aa(lp6228
I5
aa(lp6229
I5
aa(lp6230
I5
aa(lp6231
I5
aa(lp6232
I5
aa(lp6233
I5
aa(lp6234
I5
aa(lp6235
I5
aa(lp6236
I5
aa(lp6237
I5
aa(lp6238
I5
aa(lp6239
I5
aa(lp6240
I5
aa(lp6241
I5
aa(lp6242
I5
aa(lp6243
I5
aa(lp6244
I5
aa(lp6245
I5
aa(lp6246
I5
aa(lp6247
I5
aa(lp6248
I5
aa(lp6249
I5
aa(lp6250
I5
aa(lp6251
I5
aa(lp6252
I5
aa(lp6253
I5
aa(lp6254
I5
aa(lp6255
I5
aa(lp6256
I5
aa(lp6257
I5
aa(lp6258
I5
aa(lp6259
I5
aa(lp6260
I5
aa(lp6261
I5
aa(lp6262
I5
aa(lp6263
I5
aa(lp6264
I5
aa(lp6265
I5
aa(lp6266
I5
aa(lp6267
I5
aa(lp6268
I5
aa(lp6269
I5
aa(lp6270
I5
aa(lp6271
I5
aa(lp6272
I5
aa(lp6273
I5
aa(lp6274
I5
aa(lp6275
I5
aa(lp6276
I5
aa(lp6277
I5
aa(lp6278
I5
aa(lp6279
I5
aa(lp6280
I5
aa(lp6281
I5
aa(lp6282
I5
aa(lp6283
I5
aa(lp6284
I5
aa(lp6285
I5
aa(lp6286
I5
aa(lp6287
I5
aa(lp6288
I5
aa(lp6289
I5
aa(lp6290
I5
aa(lp6291
I5
aa(lp6292
I5
aa(lp6293
I5
aa(lp6294
I5
aa(lp6295
I5
aa(lp6296
I5
aa(lp6297
I5
aa(lp6298
I5
aa(lp6299
I5
aa(lp6300
I5
aa(lp6301
I5
aa(lp6302
I5
aa(lp6303
I5
aa(lp6304
I5
aa(lp6305
I5
aa(lp6306
I5
aa(lp6307
I5
aa(lp6308
I5
aa(lp6309
I5
aa(lp6310
I5
aa(lp6311
I5
aa(lp6312
I5
aa(lp6313
I5
aa(lp6314
I5
aa(lp6315
I5
aa(lp6316
I5
aa(lp6317
I5
aa(lp6318
I5
aa(lp6319
I5
aa(lp6320
I5
aa(lp6321
I5
aa(lp6322
I5
aa(lp6323
I5
aa(lp6324
I5
aa(lp6325
I5
aa(lp6326
I5
aa(lp6327
I5
aa(lp6328
I5
aa(lp6329
I5
aa(lp6330
I5
aa(lp6331
I5
aa(lp6332
I5
aa(lp6333
I5
aa(lp6334
I5
aa(lp6335
I5
aa(lp6336
I5
aa(lp6337
I5
aa(lp6338
I5
aa(lp6339
I5
aa(lp6340
I5
aa(lp6341
I5
aa(lp6342
I5
aa(lp6343
I5
aa(lp6344
I5
aa(lp6345
I5
aa(lp6346
I5
aa(lp6347
I5
aa(lp6348
I5
aa(lp6349
I5
aa(lp6350
I5
aa(lp6351
I5
aa(lp6352
I5
aa(lp6353
I5
aa(lp6354
I5
aa(lp6355
I5
aa(lp6356
I5
aa(lp6357
I5
aa(lp6358
I5
aa(lp6359
I5
aa(lp6360
I5
aa(lp6361
I5
aa(lp6362
I5
aa(lp6363
I5
aa(lp6364
I5
aa(lp6365
I5
aa(lp6366
I5
aa(lp6367
I5
aa(lp6368
I5
aa(lp6369
I5
aa(lp6370
I5
aa(lp6371
I5
aa(lp6372
I5
aa(lp6373
I5
aa(lp6374
I5
aa(lp6375
I5
aa(lp6376
I5
aa(lp6377
I5
aa(lp6378
I5
aa(lp6379
I5
aa(lp6380
I5
aa(lp6381
I5
aa(lp6382
I5
aa(lp6383
I5
aa(lp6384
I5
aa(lp6385
I5
aa(lp6386
I5
aa(lp6387
I5
aa(lp6388
I5
aa(lp6389
I5
aa(lp6390
I5
aa(lp6391
I5
aa(lp6392
I5
aa(lp6393
I5
aa(lp6394
I5
aa(lp6395
I5
aa(lp6396
I5
aa(lp6397
I5
aa(lp6398
I5
aa(lp6399
I5
aa(lp6400
I5
aa(lp6401
I5
aa(lp6402
I5
aa(lp6403
I5
aa(lp6404
I5
aa(lp6405
I5
aa(lp6406
I5
aa(lp6407
I5
aa(lp6408
I5
aa(lp6409
I5
aa(lp6410
I5
aa(lp6411
I5
aa(lp6412
I5
aa(lp6413
I5
aa(lp6414
I5
aa(lp6415
I5
aa(lp6416
I5
aa(lp6417
I5
aa(lp6418
I5
aa(lp6419
I5
aa(lp6420
I5
aa(lp6421
I5
aa(lp6422
I5
aa(lp6423
I5
aa(lp6424
I5
aa(lp6425
I5
aa(lp6426
I5
aa(lp6427
I5
aa(lp6428
I5
aa(lp6429
I5
aa(lp6430
I5
aa(lp6431
I5
aa(lp6432
I5
aa(lp6433
I5
aa(lp6434
I5
aa(lp6435
I5
aa(lp6436
I5
aa(lp6437
I5
aa(lp6438
I5
aa(lp6439
I5
aa(lp6440
I5
aa(lp6441
I5
aa(lp6442
I5
aa(lp6443
I5
aa(lp6444
I5
aa(lp6445
I5
aa(lp6446
I5
aa(lp6447
I5
aa(lp6448
I5
aa(lp6449
I5
aa(lp6450
I5
aa(lp6451
I5
aa(lp6452
I5
aa(lp6453
I5
aa(lp6454
I5
aa(lp6455
I5
aa(lp6456
I5
aa(lp6457
I5
aa(lp6458
I5
aa(lp6459
I5
aa(lp6460
I5
aa(lp6461
I5
aa(lp6462
I5
aa(lp6463
I5
aa(lp6464
I5
aa(lp6465
I5
aa(lp6466
I5
aa(lp6467
I5
aa(lp6468
I5
aa(lp6469
I5
aa(lp6470
I5
aa(lp6471
I5
aa(lp6472
I5
aa(lp6473
I5
aa(lp6474
I5
aa(lp6475
I5
aa(lp6476
I5
aa(lp6477
I5
aa(lp6478
I5
aa(lp6479
I5
aa(lp6480
I5
aa(lp6481
I5
aa(lp6482
I5
aa(lp6483
I5
aa(lp6484
I5
aa(lp6485
I5
aa(lp6486
I5
aa(lp6487
I5
aa(lp6488
I6
aa(lp6489
I6
aa(lp6490
I6
aa(lp6491
I6
aa(lp6492
I6
aa(lp6493
I6
aa(lp6494
I6
aa(lp6495
I6
aa(lp6496
I6
aa(lp6497
I6
aa(lp6498
I6
aa(lp6499
I6
aa(lp6500
I6
aa(lp6501
I6
aa(lp6502
I6
aa(lp6503
I6
aa(lp6504
I6
aa(lp6505
I6
aa(lp6506
I6
aa(lp6507
I6
aa(lp6508
I6
aa(lp6509
I6
aa(lp6510
I6
aa(lp6511
I6
aa(lp6512
I6
aa(lp6513
I6
aa(lp6514
I6
aa(lp6515
I6
aa(lp6516
I6
aa(lp6517
I6
aa(lp6518
I6
aa(lp6519
I6
aa(lp6520
I6
aa(lp6521
I6
aa(lp6522
I6
aa(lp6523
I6
aa(lp6524
I6
aa(lp6525
I6
aa(lp6526
I6
aa(lp6527
I6
aa(lp6528
I6
aa(lp6529
I6
aa(lp6530
I6
aa(lp6531
I6
aa(lp6532
I6
aa(lp6533
I6
aa(lp6534
I6
aa(lp6535
I6
aa(lp6536
I6
aa(lp6537
I6
aa(lp6538
I6
aa(lp6539
I6
aa(lp6540
I6
aa(lp6541
I6
aa(lp6542
I6
aa(lp6543
I6
aa(lp6544
I6
aa(lp6545
I6
aa(lp6546
I6
aa(lp6547
I6
aa(lp6548
I6
aa(lp6549
I6
aa(lp6550
I6
aa(lp6551
I6
aa(lp6552
I6
aa(lp6553
I6
aa(lp6554
I6
aa(lp6555
I6
aa(lp6556
I6
aa(lp6557
I6
aa(lp6558
I6
aa(lp6559
I6
aa(lp6560
I6
aa(lp6561
I6
aa(lp6562
I6
aa(lp6563
I6
aa(lp6564
I6
aa(lp6565
I6
aa(lp6566
I6
aa(lp6567
I6
aa(lp6568
I6
aa(lp6569
I6
aa(lp6570
I6
aa(lp6571
I6
aa(lp6572
I6
aa(lp6573
I6
aa(lp6574
I6
aa(lp6575
I6
aa(lp6576
I6
aa(lp6577
I6
aa(lp6578
I6
aa(lp6579
I6
aa(lp6580
I6
aa(lp6581
I6
aa(lp6582
I6
aa(lp6583
I6
aa(lp6584
I6
aa(lp6585
I6
aa(lp6586
I6
aa(lp6587
I6
aa(lp6588
I6
aa(lp6589
I6
aa(lp6590
I6
aa(lp6591
I6
aa(lp6592
I6
aa(lp6593
I6
aa(lp6594
I6
aa(lp6595
I6
aa(lp6596
I6
aa(lp6597
I6
aa(lp6598
I6
aa(lp6599
I6
aa(lp6600
I6
aa(lp6601
I6
aa(lp6602
I6
aa(lp6603
I6
aa(lp6604
I6
aa(lp6605
I6
aa(lp6606
I6
aa(lp6607
I6
aa(lp6608
I6
aa(lp6609
I6
aa(lp6610
I6
aa(lp6611
I6
aa(lp6612
I6
aa(lp6613
I6
aa(lp6614
I6
aa(lp6615
I6
aa(lp6616
I6
aa(lp6617
I6
aa(lp6618
I6
aa(lp6619
I6
aa(lp6620
I6
aa(lp6621
I6
aa(lp6622
I6
aa(lp6623
I6
aa(lp6624
I6
aa(lp6625
I6
aa(lp6626
I6
aa(lp6627
I6
aa(lp6628
I6
aa(lp6629
I6
aa(lp6630
I6
aa(lp6631
I6
aa(lp6632
I6
aa(lp6633
I6
aa(lp6634
I6
aa(lp6635
I6
aa(lp6636
I6
aa(lp6637
I6
aa(lp6638
I6
aa(lp6639
I6
aa(lp6640
I6
aa(lp6641
I6
aa(lp6642
I6
aa(lp6643
I6
aa(lp6644
I6
aa(lp6645
I6
aa(lp6646
I6
aa(lp6647
I6
aa(lp6648
I6
aa(lp6649
I6
aa(lp6650
I6
aa(lp6651
I6
aa(lp6652
I6
aa(lp6653
I6
aa(lp6654
I6
aa(lp6655
I6
aa(lp6656
I6
aa(lp6657
I6
aa(lp6658
I6
aa(lp6659
I6
aa(lp6660
I6
aa(lp6661
I6
aa(lp6662
I6
aa(lp6663
I6
aa(lp6664
I6
aa(lp6665
I6
aa(lp6666
I6
aa(lp6667
I6
aa(lp6668
I6
aa(lp6669
I6
aa(lp6670
I6
aa(lp6671
I6
aa(lp6672
I6
aa(lp6673
I6
aa(lp6674
I6
aa(lp6675
I6
aa(lp6676
I6
aa(lp6677
I6
aa(lp6678
I6
aa(lp6679
I6
aa(lp6680
I6
aa(lp6681
I6
aa(lp6682
I6
aa(lp6683
I6
aa(lp6684
I6
aa(lp6685
I6
aa(lp6686
I6
aa(lp6687
I6
aa(lp6688
I6
aa(lp6689
I6
aa(lp6690
I6
aa(lp6691
I6
aa(lp6692
I6
aa(lp6693
I6
aa(lp6694
I6
aa(lp6695
I6
aa(lp6696
I6
aa(lp6697
I6
aa(lp6698
I6
aa(lp6699
I6
aa(lp6700
I6
aa(lp6701
I6
aa(lp6702
I6
aa(lp6703
I6
aa(lp6704
I6
aa(lp6705
I6
aa(lp6706
I6
aa(lp6707
I6
aa(lp6708
I6
aa(lp6709
I6
aa(lp6710
I6
aa(lp6711
I6
aa(lp6712
I6
aa(lp6713
I6
aa(lp6714
I6
aa(lp6715
I6
aa(lp6716
I6
aa(lp6717
I6
aa(lp6718
I6
aa(lp6719
I6
aa(lp6720
I6
aa(lp6721
I6
aa(lp6722
I6
aa(lp6723
I6
aa(lp6724
I6
aa(lp6725
I6
aa(lp6726
I6
aa(lp6727
I6
aa(lp6728
I6
aa(lp6729
I6
aa(lp6730
I6
aa(lp6731
I6
aa(lp6732
I6
aa(lp6733
I6
aa(lp6734
I6
aa(lp6735
I6
aa(lp6736
I6
aa(lp6737
I6
aa(lp6738
I6
aa(lp6739
I6
aa(lp6740
I6
aa(lp6741
I6
aa(lp6742
I6
aa(lp6743
I6
aa(lp6744
I6
aa(lp6745
I6
aa(lp6746
I6
aa(lp6747
I6
aa(lp6748
I6
aa(lp6749
I6
aa(lp6750
I6
aa(lp6751
I6
aa(lp6752
I6
aa(lp6753
I6
aa(lp6754
I6
aa(lp6755
I6
aa(lp6756
I6
aa(lp6757
I6
aa(lp6758
I6
aa(lp6759
I6
aa(lp6760
I6
aa(lp6761
I6
aa(lp6762
I6
aa(lp6763
I6
aa(lp6764
I6
aa(lp6765
I6
aa(lp6766
I6
aa(lp6767
I6
aa(lp6768
I6
aa(lp6769
I6
aa(lp6770
I6
aa(lp6771
I6
aa(lp6772
I6
aa(lp6773
I6
aa(lp6774
I6
aa(lp6775
I6
aa(lp6776
I6
aa(lp6777
I6
aa(lp6778
I6
aa(lp6779
I6
aa(lp6780
I6
aa(lp6781
I6
aa(lp6782
I6
aa(lp6783
I6
aa(lp6784
I6
aa(lp6785
I6
aa(lp6786
I6
aa(lp6787
I6
aa(lp6788
I6
aa(lp6789
I6
aa(lp6790
I6
aa(lp6791
I6
aa(lp6792
I6
aa(lp6793
I6
aa(lp6794
I6
aa(lp6795
I6
aa(lp6796
I6
aa(lp6797
I6
aa(lp6798
I6
aa(lp6799
I6
aa(lp6800
I6
aa(lp6801
I6
aa(lp6802
I6
aa(lp6803
I6
aa(lp6804
I6
aa(lp6805
I6
aa(lp6806
I6
aa(lp6807
I6
aa(lp6808
I6
aa(lp6809
I6
aa(lp6810
I6
aa(lp6811
I6
aa(lp6812
I6
aa(lp6813
I6
aa(lp6814
I6
aa(lp6815
I6
aa(lp6816
I6
aa(lp6817
I6
aa(lp6818
I6
aa(lp6819
I6
aa(lp6820
I6
aa(lp6821
I6
aa(lp6822
I6
aa(lp6823
I6
aa(lp6824
I6
aa(lp6825
I6
aa(lp6826
I6
aa(lp6827
I6
aa(lp6828
I6
aa(lp6829
I6
aa(lp6830
I6
aa(lp6831
I6
aa(lp6832
I6
aa(lp6833
I6
aa(lp6834
I6
aa(lp6835
I6
aa(lp6836
I6
aa(lp6837
I6
aa(lp6838
I6
aa(lp6839
I6
aa(lp6840
I6
aa(lp6841
I6
aa(lp6842
I6
aa(lp6843
I6
aa(lp6844
I6
aa(lp6845
I6
aa(lp6846
I6
aa(lp6847
I6
aa(lp6848
I6
aa(lp6849
I6
aa(lp6850
I6
aa(lp6851
I6
aa(lp6852
I6
aa(lp6853
I6
aa(lp6854
I6
aa(lp6855
I6
aa(lp6856
I6
aa(lp6857
I6
aa(lp6858
I6
aa(lp6859
I6
aa(lp6860
I6
aa(lp6861
I6
aa(lp6862
I6
aa(lp6863
I6
aa(lp6864
I6
aa(lp6865
I6
aa(lp6866
I6
aa(lp6867
I6
aa(lp6868
I6
aa(lp6869
I6
aa(lp6870
I6
aa(lp6871
I6
aa(lp6872
I6
aa(lp6873
I6
aa(lp6874
I6
aa(lp6875
I6
aa(lp6876
I6
aa(lp6877
I6
aa(lp6878
I6
aa(lp6879
I6
aa(lp6880
I6
aa(lp6881
I6
aa(lp6882
I6
aa(lp6883
I6
aa(lp6884
I6
aa(lp6885
I6
aa(lp6886
I6
aa(lp6887
I6
aa(lp6888
I6
aa(lp6889
I6
aa(lp6890
I6
aa(lp6891
I6
aa(lp6892
I6
aa(lp6893
I6
aa(lp6894
I6
aa(lp6895
I6
aa(lp6896
I6
aa(lp6897
I6
aa(lp6898
I6
aa(lp6899
I6
aa(lp6900
I6
aa(lp6901
I6
aa(lp6902
I6
aa(lp6903
I6
aa(lp6904
I6
aa(lp6905
I6
aa(lp6906
I6
aa(lp6907
I6
aa(lp6908
I6
aa(lp6909
I6
aa(lp6910
I6
aa(lp6911
I6
aa(lp6912
I6
aa(lp6913
I6
aa(lp6914
I6
aa(lp6915
I6
aa(lp6916
I6
aa(lp6917
I6
aa(lp6918
I6
aa(lp6919
I6
aa(lp6920
I6
aa(lp6921
I6
aa(lp6922
I6
aa(lp6923
I6
aa(lp6924
I6
aa(lp6925
I6
aa(lp6926
I6
aa(lp6927
I6
aa(lp6928
I6
aa(lp6929
I6
aa(lp6930
I6
aa(lp6931
I6
aa(lp6932
I6
aa(lp6933
I6
aa(lp6934
I6
aa(lp6935
I6
aa(lp6936
I6
aa(lp6937
I6
aa(lp6938
I6
aa(lp6939
I6
aa(lp6940
I6
aa(lp6941
I6
aa(lp6942
I6
aa(lp6943
I6
aa(lp6944
I6
aa(lp6945
I6
aa(lp6946
I6
aa(lp6947
I6
aa(lp6948
I6
aa(lp6949
I6
aa(lp6950
I6
aa(lp6951
I6
aa(lp6952
I6
aa(lp6953
I6
aa(lp6954
I6
aa(lp6955
I6
aa(lp6956
I6
aa(lp6957
I6
aa(lp6958
I6
aa(lp6959
I6
aa(lp6960
I6
aa(lp6961
I6
aa(lp6962
I6
aa(lp6963
I6
aa(lp6964
I6
aa(lp6965
I6
aa(lp6966
I6
aa(lp6967
I6
aa(lp6968
I6
aa(lp6969
I6
aa(lp6970
I6
aa(lp6971
I6
aa(lp6972
I6
aa(lp6973
I6
aa(lp6974
I6
aa(lp6975
I6
aa(lp6976
I6
aa(lp6977
I6
aa(lp6978
I6
aa(lp6979
I6
aa(lp6980
I6
aa(lp6981
I6
aa(lp6982
I6
aa(lp6983
I6
aa(lp6984
I6
aa(lp6985
I6
aa(lp6986
I6
aa(lp6987
I6
aa(lp6988
I6
aa(lp6989
I6
aa(lp6990
I6
aa(lp6991
I6
aa(lp6992
I6
aa(lp6993
I6
aa(lp6994
I6
aa(lp6995
I6
aa(lp6996
I6
aa(lp6997
I6
aa(lp6998
I6
aa(lp6999
I6
aa(lp7000
I6
aa(lp7001
I6
aa(lp7002
I6
aa(lp7003
I6
aa(lp7004
I6
aa(lp7005
I6
aa(lp7006
I6
aa(lp7007
I6
aa(lp7008
I6
aa(lp7009
I6
aa(lp7010
I6
aa(lp7011
I6
aa(lp7012
I6
aa(lp7013
I6
aa(lp7014
I6
aa(lp7015
I6
aa(lp7016
I6
aa(lp7017
I6
aa(lp7018
I6
aa(lp7019
I6
aa(lp7020
I6
aa(lp7021
I6
aa(lp7022
I6
aa(lp7023
I6
aa(lp7024
I6
aa(lp7025
I6
aa(lp7026
I6
aa(lp7027
I6
aa(lp7028
I6
aa(lp7029
I6
aa(lp7030
I6
aa(lp7031
I6
aa(lp7032
I6
aa(lp7033
I6
aa(lp7034
I6
aa(lp7035
I6
aa(lp7036
I6
aa(lp7037
I6
aa(lp7038
I6
aa(lp7039
I6
aa(lp7040
I6
aa(lp7041
I6
aa(lp7042
I6
aa(lp7043
I6
aa(lp7044
I6
aa(lp7045
I6
aa(lp7046
I6
aa(lp7047
I6
aa(lp7048
I6
aa(lp7049
I6
aa(lp7050
I6
aa(lp7051
I6
aa(lp7052
I6
aa(lp7053
I6
aa(lp7054
I6
aa(lp7055
I6
aa(lp7056
I6
aa(lp7057
I6
aa(lp7058
I6
aa(lp7059
I6
aa(lp7060
I6
aa(lp7061
I6
aa(lp7062
I6
aa(lp7063
I6
aa(lp7064
I6
aa(lp7065
I6
aa(lp7066
I6
aa(lp7067
I6
aa(lp7068
I6
aa(lp7069
I6
aa(lp7070
I6
aa(lp7071
I6
aa(lp7072
I6
aa(lp7073
I6
aa(lp7074
I6
aa(lp7075
I6
aa(lp7076
I6
aa(lp7077
I6
aa(lp7078
I6
aa(lp7079
I6
aa(lp7080
I6
aa(lp7081
I6
aa(lp7082
I6
aa(lp7083
I6
aa(lp7084
I6
aa(lp7085
I6
aa(lp7086
I6
aa(lp7087
I6
aa(lp7088
I6
aa(lp7089
I6
aa(lp7090
I6
aa(lp7091
I6
aa(lp7092
I6
aa(lp7093
I6
aa(lp7094
I6
aa(lp7095
I6
aa(lp7096
I6
aa(lp7097
I6
aa(lp7098
I6
aa(lp7099
I6
aa(lp7100
I6
aa(lp7101
I6
aa(lp7102
I6
aa(lp7103
I6
aa(lp7104
I6
aa(lp7105
I6
aa(lp7106
I6
aa(lp7107
I6
aa(lp7108
I6
aa(lp7109
I6
aa(lp7110
I6
aa(lp7111
I6
aa(lp7112
I6
aa(lp7113
I6
aa(lp7114
I6
aa(lp7115
I6
aa(lp7116
I6
aa(lp7117
I6
aa(lp7118
I6
aa(lp7119
I6
aa(lp7120
I6
aa(lp7121
I6
aa(lp7122
I6
aa(lp7123
I6
aa(lp7124
I6
aa(lp7125
I6
aa(lp7126
I6
aa(lp7127
I6
aa(lp7128
I6
aa(lp7129
I6
aa(lp7130
I6
aa(lp7131
I6
aa(lp7132
I6
aa(lp7133
I6
aa(lp7134
I6
aa(lp7135
I6
aa(lp7136
I6
aa(lp7137
I6
aa(lp7138
I6
aa(lp7139
I6
aa(lp7140
I6
aa(lp7141
I6
aa(lp7142
I6
aa(lp7143
I6
aa(lp7144
I6
aa(lp7145
I6
aa(lp7146
I6
aa(lp7147
I6
aa(lp7148
I6
aa(lp7149
I6
aa(lp7150
I6
aa(lp7151
I6
aa(lp7152
I6
aa(lp7153
I6
aa(lp7154
I6
aa(lp7155
I6
aa(lp7156
I6
aa(lp7157
I6
aa(lp7158
I6
aa(lp7159
I6
aa(lp7160
I6
aa(lp7161
I6
aa(lp7162
I6
aa(lp7163
I6
aa(lp7164
I6
aa(lp7165
I6
aa(lp7166
I6
aa(lp7167
I6
aa(lp7168
I6
aa(lp7169
I6
aa(lp7170
I6
aa(lp7171
I6
aa(lp7172
I6
aa(lp7173
I6
aa(lp7174
I6
aa(lp7175
I6
aa(lp7176
I6
aa(lp7177
I6
aa(lp7178
I6
aa(lp7179
I6
aa(lp7180
I6
aa(lp7181
I6
aa(lp7182
I6
aa(lp7183
I6
aa(lp7184
I6
aa(lp7185
I6
aa(lp7186
I6
aa(lp7187
I6
aa(lp7188
I6
aa(lp7189
I6
aa(lp7190
I6
aa(lp7191
I6
aa(lp7192
I6
aa(lp7193
I6
aa(lp7194
I6
aa(lp7195
I6
aa(lp7196
I6
aa(lp7197
I6
aa(lp7198
I6
aa(lp7199
I6
aa(lp7200
I6
aa(lp7201
I6
aa(lp7202
I6
aa(lp7203
I6
aa(lp7204
I6
aa(lp7205
I6
aa(lp7206
I6
aa(lp7207
I6
aa(lp7208
I6
aa(lp7209
I6
aa(lp7210
I6
aa(lp7211
I6
aa(lp7212
I6
aa(lp7213
I6
aa(lp7214
I6
aa(lp7215
I6
aa(lp7216
I6
aa(lp7217
I6
aa(lp7218
I6
aa(lp7219
I6
aa(lp7220
I6
aa(lp7221
I6
aa(lp7222
I6
aa(lp7223
I6
aa(lp7224
I6
aa(lp7225
I6
aa(lp7226
I6
aa(lp7227
I6
aa(lp7228
I6
aa(lp7229
I6
aa(lp7230
I6
aa(lp7231
I6
aa(lp7232
I6
aa(lp7233
I6
aa(lp7234
I6
aa(lp7235
I6
aa(lp7236
I6
aa(lp7237
I6
aa(lp7238
I6
aa(lp7239
I6
aa(lp7240
I6
aa(lp7241
I6
aa(lp7242
I6
aa(lp7243
I6
aa(lp7244
I6
aa(lp7245
I6
aa(lp7246
I6
aa(lp7247
I6
aa(lp7248
I6
aa(lp7249
I6
aa(lp7250
I6
aa(lp7251
I6
aa(lp7252
I6
aa(lp7253
I6
aa(lp7254
I6
aa(lp7255
I6
aa(lp7256
I6
aa(lp7257
I6
aa(lp7258
I6
aa(lp7259
I6
aa(lp7260
I6
aa(lp7261
I6
aa(lp7262
I6
aa(lp7263
I6
aa(lp7264
I6
aa(lp7265
I6
aa(lp7266
I6
aa(lp7267
I6
aa(lp7268
I6
aa(lp7269
I6
aa(lp7270
I6
aa(lp7271
I6
aa(lp7272
I6
aa(lp7273
I6
aa(lp7274
I6
aa(lp7275
I6
aa(lp7276
I6
aa(lp7277
I6
aa(lp7278
I6
aa(lp7279
I6
aa(lp7280
I6
aa(lp7281
I6
aa(lp7282
I6
aa(lp7283
I6
aa(lp7284
I6
aa(lp7285
I6
aa(lp7286
I6
aa(lp7287
I6
aa(lp7288
I6
aa(lp7289
I6
aa(lp7290
I6
aa(lp7291
I6
aa(lp7292
I6
aa(lp7293
I6
aa(lp7294
I6
aa(lp7295
I6
aa(lp7296
I6
aa(lp7297
I6
aa(lp7298
I6
aa(lp7299
I6
aa(lp7300
I6
aa(lp7301
I6
aa(lp7302
I6
aa(lp7303
I6
aa(lp7304
I6
aa(lp7305
I6
aa(lp7306
I6
aa(lp7307
I6
aa(lp7308
I6
aa(lp7309
I6
aa(lp7310
I6
aa(lp7311
I6
aa(lp7312
I6
aa(lp7313
I6
aa(lp7314
I6
aa(lp7315
I6
aa(lp7316
I6
aa(lp7317
I6
aa(lp7318
I6
aa(lp7319
I6
aa(lp7320
I6
aa(lp7321
I6
aa(lp7322
I6
aa(lp7323
I6
aa(lp7324
I6
aa(lp7325
I6
aa(lp7326
I6
aa(lp7327
I6
aa(lp7328
I6
aa(lp7329
I6
aa(lp7330
I6
aa(lp7331
I6
aa(lp7332
I6
aa(lp7333
I6
aa(lp7334
I6
aa(lp7335
I6
aa(lp7336
I6
aa(lp7337
I6
aa(lp7338
I6
aa(lp7339
I6
aa(lp7340
I6
aa(lp7341
I6
aa(lp7342
I6
aa(lp7343
I6
aa(lp7344
I6
aa(lp7345
I6
aa(lp7346
I6
aa(lp7347
I6
aa(lp7348
I6
aa(lp7349
I6
aa(lp7350
I6
aa(lp7351
I6
aa(lp7352
I6
aa(lp7353
I6
aa(lp7354
I6
aa(lp7355
I6
aa(lp7356
I6
aa(lp7357
I6
aa(lp7358
I6
aa(lp7359
I6
aa(lp7360
I6
aa(lp7361
I6
aa(lp7362
I6
aa(lp7363
I6
aa(lp7364
I6
aa(lp7365
I6
aa(lp7366
I6
aa(lp7367
I6
aa(lp7368
I6
aa(lp7369
I6
aa(lp7370
I6
aa(lp7371
I6
aa(lp7372
I6
aa(lp7373
I6
aa(lp7374
I6
aa(lp7375
I6
aa(lp7376
I6
aa(lp7377
I6
aa(lp7378
I6
aa(lp7379
I6
aa(lp7380
I6
aa(lp7381
I6
aa(lp7382
I6
aa(lp7383
I6
aa(lp7384
I6
aa(lp7385
I6
aa(lp7386
I6
aa(lp7387
I6
aa(lp7388
I6
aa(lp7389
I6
aa(lp7390
I6
aa(lp7391
I6
aa(lp7392
I6
aa(lp7393
I6
aa(lp7394
I6
aa(lp7395
I6
aa(lp7396
I6
aa(lp7397
I6
aa(lp7398
I6
aa(lp7399
I6
aa(lp7400
I6
aa(lp7401
I6
aa(lp7402
I6
aa(lp7403
I6
aa(lp7404
I6
aa(lp7405
I6
aa(lp7406
I6
aa(lp7407
I6
aa(lp7408
I6
aa(lp7409
I6
aa(lp7410
I6
aa(lp7411
I6
aa(lp7412
I6
aa(lp7413
I6
aa(lp7414
I6
aa(lp7415
I6
aa(lp7416
I6
aa(lp7417
I6
aa(lp7418
I6
aa(lp7419
I6
aa(lp7420
I6
aa(lp7421
I6
aa(lp7422
I6
aa(lp7423
I6
aa(lp7424
I6
aa(lp7425
I6
aa(lp7426
I6
aa(lp7427
I6
aa(lp7428
I6
aa(lp7429
I6
aa(lp7430
I6
aa(lp7431
I6
aa(lp7432
I6
aa(lp7433
I6
aa(lp7434
I6
aa(lp7435
I6
aa(lp7436
I6
aa(lp7437
I6
aa(lp7438
I6
aa(lp7439
I6
aa(lp7440
I6
aa(lp7441
I6
aa(lp7442
I6
aa(lp7443
I6
aa(lp7444
I6
aa(lp7445
I6
aa(lp7446
I6
aa(lp7447
I6
aa(lp7448
I6
aa(lp7449
I6
aa(lp7450
I6
aa(lp7451
I6
aa(lp7452
I6
aa(lp7453
I6
aa(lp7454
I6
aa(lp7455
I6
aa(lp7456
I6
aa(lp7457
I6
aa(lp7458
I6
aa(lp7459
I6
aa(lp7460
I6
aa(lp7461
I6
aa(lp7462
I6
aa(lp7463
I6
aa(lp7464
I6
aa(lp7465
I6
aa(lp7466
I6
aa(lp7467
I6
aa(lp7468
I6
aa(lp7469
I6
aa(lp7470
I6
aa(lp7471
I6
aa(lp7472
I6
aa(lp7473
I6
aa(lp7474
I6
aa(lp7475
I6
aa(lp7476
I6
aa(lp7477
I6
aa(lp7478
I6
aa(lp7479
I6
aa(lp7480
I6
aa(lp7481
I6
aa(lp7482
I6
aa(lp7483
I6
aa(lp7484
I6
aa(lp7485
I6
aa(lp7486
I6
aa(lp7487
I6
aa(lp7488
I6
aa(lp7489
I6
aa(lp7490
I6
aa(lp7491
I6
aa(lp7492
I6
aa(lp7493
I6
aa(lp7494
I6
aa(lp7495
I6
aa(lp7496
I6
aa(lp7497
I6
aa(lp7498
I6
aa(lp7499
I6
aa(lp7500
I6
aa(lp7501
I6
aa(lp7502
I6
aa(lp7503
I6
aa(lp7504
I6
aa(lp7505
I6
aa(lp7506
I6
aa(lp7507
I6
aa(lp7508
I6
aa(lp7509
I6
aa(lp7510
I6
aa(lp7511
I6
aa(lp7512
I6
aa(lp7513
I6
aa(lp7514
I6
aa(lp7515
I6
aa(lp7516
I6
aa(lp7517
I6
aa(lp7518
I6
aa(lp7519
I6
aa(lp7520
I6
aa(lp7521
I6
aa(lp7522
I6
aa(lp7523
I6
aa(lp7524
I6
aa(lp7525
I6
aa(lp7526
I6
aa(lp7527
I6
aa(lp7528
I6
aa(lp7529
I6
aa(lp7530
I6
aa(lp7531
I6
aa(lp7532
I6
aa(lp7533
I6
aa(lp7534
I6
aa(lp7535
I6
aa(lp7536
I6
aa(lp7537
I6
aa(lp7538
I6
aa(lp7539
I6
aa(lp7540
I6
aa(lp7541
I6
aa(lp7542
I6
aa(lp7543
I6
aa(lp7544
I6
aa(lp7545
I6
aa(lp7546
I6
aa(lp7547
I6
aa(lp7548
I6
aa(lp7549
I6
aa(lp7550
I6
aa(lp7551
I6
aa(lp7552
I6
aa(lp7553
I6
aa(lp7554
I6
aa(lp7555
I6
aa(lp7556
I6
aa(lp7557
I6
aa(lp7558
I6
aa(lp7559
I6
aa(lp7560
I6
aa(lp7561
I6
aa(lp7562
I6
aa(lp7563
I6
aa(lp7564
I6
aa(lp7565
I6
aa(lp7566
I6
aa(lp7567
I6
aa(lp7568
I6
aa(lp7569
I6
aa(lp7570
I6
aa(lp7571
I6
aa(lp7572
I6
aa(lp7573
I6
aa(lp7574
I6
aa(lp7575
I6
aa(lp7576
I6
aa(lp7577
I6
aa(lp7578
I6
aa(lp7579
I6
aa(lp7580
I6
aa(lp7581
I6
aa(lp7582
I6
aa(lp7583
I6
aa(lp7584
I6
aa(lp7585
I6
aa(lp7586
I6
aa(lp7587
I6
aa(lp7588
I6
aa(lp7589
I6
aa.